
monitor.elf:     file format elf32-avr

Sections:
Idx Name          Size      VMA       LMA       File off  Algn
  0 .data         000000d8  00800100  00003934  000039c8  2**0
                  CONTENTS, ALLOC, LOAD, DATA
  1 .text         00003934  00000000  00000000  00000094  2**1
                  CONTENTS, ALLOC, LOAD, READONLY, CODE
  2 .bss          00000597  008001d8  008001d8  00003aa0  2**0
                  ALLOC
  3 .stab         000060d8  00000000  00000000  00003aa0  2**2
                  CONTENTS, READONLY, DEBUGGING
  4 .stabstr      000015a6  00000000  00000000  00009b78  2**0
                  CONTENTS, READONLY, DEBUGGING
  5 .comment      00000011  00000000  00000000  0000b11e  2**0
                  CONTENTS, READONLY

Disassembly of section .text:

00000000 <__vectors>:
       0:	0c 94 3d 02 	jmp	0x47a	; 0x47a <__ctors_end>
       4:	0c 94 5a 02 	jmp	0x4b4	; 0x4b4 <__bad_interrupt>
       8:	0c 94 5a 02 	jmp	0x4b4	; 0x4b4 <__bad_interrupt>
       c:	0c 94 5a 02 	jmp	0x4b4	; 0x4b4 <__bad_interrupt>
      10:	0c 94 5a 02 	jmp	0x4b4	; 0x4b4 <__bad_interrupt>
      14:	0c 94 5a 02 	jmp	0x4b4	; 0x4b4 <__bad_interrupt>
      18:	0c 94 5a 02 	jmp	0x4b4	; 0x4b4 <__bad_interrupt>
      1c:	0c 94 5a 02 	jmp	0x4b4	; 0x4b4 <__bad_interrupt>
      20:	0c 94 5a 02 	jmp	0x4b4	; 0x4b4 <__bad_interrupt>
      24:	0c 94 5a 02 	jmp	0x4b4	; 0x4b4 <__bad_interrupt>
      28:	0c 94 5a 02 	jmp	0x4b4	; 0x4b4 <__bad_interrupt>
      2c:	0c 94 1e 0e 	jmp	0x1c3c	; 0x1c3c <__vector_11>
      30:	0c 94 5a 02 	jmp	0x4b4	; 0x4b4 <__bad_interrupt>
      34:	0c 94 5a 02 	jmp	0x4b4	; 0x4b4 <__bad_interrupt>
      38:	0c 94 5a 02 	jmp	0x4b4	; 0x4b4 <__bad_interrupt>
      3c:	0c 94 5a 02 	jmp	0x4b4	; 0x4b4 <__bad_interrupt>
      40:	0c 94 5a 02 	jmp	0x4b4	; 0x4b4 <__bad_interrupt>
      44:	0c 94 5a 02 	jmp	0x4b4	; 0x4b4 <__bad_interrupt>
      48:	0c 94 cc 0e 	jmp	0x1d98	; 0x1d98 <__vector_18>
      4c:	0c 94 01 0f 	jmp	0x1e02	; 0x1e02 <__vector_19>
      50:	0c 94 5a 02 	jmp	0x4b4	; 0x4b4 <__bad_interrupt>
      54:	0c 94 5a 02 	jmp	0x4b4	; 0x4b4 <__bad_interrupt>
      58:	0c 94 5a 02 	jmp	0x4b4	; 0x4b4 <__bad_interrupt>
      5c:	0c 94 5a 02 	jmp	0x4b4	; 0x4b4 <__bad_interrupt>
      60:	0c 94 5a 02 	jmp	0x4b4	; 0x4b4 <__bad_interrupt>
      64:	0c 94 5a 02 	jmp	0x4b4	; 0x4b4 <__bad_interrupt>

00000068 <__c.2502>:
      68:	73 65 6e 73 6f 72 20 30 78 39 34 3a 20 25 30 34     sensor 0x94: %04
      78:	58 0a 00                                            X..

0000007b <__c.2500>:
      7b:	73 65 6e 73 6f 72 20 30 78 39 32 3a 20 25 30 34     sensor 0x92: %04
      8b:	58 0a 00                                            X..

0000008e <__c.2498>:
      8e:	73 65 6e 73 6f 72 20 30 78 39 30 3a 20 25 30 34     sensor 0x90: %04
      9e:	58 0a 00                                            X..

000000a1 <__c.2490>:
      a1:	0a 70 75 6c 6c 69 6e 67 20 64 61 74 61 20 66 72     .pulling data fr
      b1:	6f 6d 20 73 65 6e 73 6f 72 73 2e 2e 2e 0a 00        om sensors.....

000000c0 <__c.2480>:
      c0:	0a 00                                               ..

000000c2 <__c.2478>:
      c2:	6e 6f 74 20 6c 6f 67 67 69 6e 67 20 61 75 74 6f     not logging auto
      d2:	6d 61 74 69 63 61 6c 6c 79 0a 00                    matically..

000000dd <__c.2476>:
      dd:	6c 6f 67 67 69 6e 67 20 61 75 74 6f 6d 61 74 69     logging automati
      ed:	63 61 6c 6c 79 0a 00                                cally..

000000f4 <__c.2474>:
      f4:	25 30 34 64 64 20 25 30 32 64 3a 25 30 32 64 3a     %04dd %02d:%02d:
     104:	25 30 32 64 20 73 69 6e 63 65 20 73 74 61 72 74     %02d since start
     114:	75 70 0a 00                                         up..

00000118 <__c.2470>:
     118:	0a 00                                               ..

0000011a <__c.2468>:
     11a:	25 30 32 58 20 00                                   %02X .

00000120 <__c.2464>:
     120:	0a 00                                               ..

00000122 <__c.2462>:
     122:	25 30 32 58 0a 00                                   %02X..

00000128 <__c.2459>:
     128:	70 72 69 6e 74 20 70 61 67 65 3a 20 30 78 00        print page: 0x.

00000137 <__c.2457>:
     137:	72 65 73 65 74 74 69 6e 67 20 63 61 63 68 65 0a     resetting cache.
	...

00000148 <__c.2455>:
     148:	25 30 32 58 0a 00                                   %02X..

0000014e <__c.2453>:
     14e:	72 65 73 65 74 20 70 61 67 65 3a 20 30 78 00        reset page: 0x.

0000015d <__c.2444>:
     15d:	25 30 32 58 0a 00                                   %02X..

00000163 <__c.2442>:
     163:	72 65 61 64 20 73 65 6e 73 6f 72 20 61 64 64 72     read sensor addr
     173:	65 73 73 3a 20 30 78 00                             ess: 0x.

0000017b <__c.2439>:
     17b:	25 64 0a 00                                         %d..

0000017f <__c.2437>:
     17f:	53 65 74 20 74 69 6d 65 20 6d 75 6c 74 69 70 6c     Set time multipl
     18f:	69 65 72 3a 20 00                                   ier: .

00000195 <__c.2433>:
     195:	0a 00                                               ..

00000197 <__c.2431>:
     197:	25 30 32 58 20 00                                   %02X .

0000019d <__c.2428>:
     19d:	70 72 69 6e 74 20 63 61 63 68 65 0a 00              print cache..

000001aa <__c.2424>:
     1aa:	73 74 61 72 74 69 6e 67 20 61 74 20 30 78 25 30     starting at 0x%0
     1ba:	32 58 25 30 32 58 0a 00                             2X%02X..

000001c2 <__c.2421>:
     1c2:	63 6f 75 6c 64 6e 27 74 20 66 69 6e 64 20 70 6c     couldn't find pl
     1d2:	61 63 65 20 74 6f 20 73 74 61 72 74 21 0a 00        ace to start!..

000001e1 <__c.2417>:
     1e1:	73 65 65 6b 69 6e 67 20 73 70 6f 74 20 69 6e 20     seeking spot in 
     1f1:	45 45 50 52 4f 4d 0a 00                             EEPROM..

000001f9 <__c.2415>:
     1f9:	63 6f 6e 66 69 67 75 72 69 6e 67 20 74 65 6d 70     configuring temp
     209:	65 72 61 74 75 72 65 20 73 65 6e 73 6f 72 73 20     erature sensors 
     219:	61 74 20 30 78 39 30 2c 20 30 78 39 32 2c 20 30     at 0x90, 0x92, 0
     229:	78 39 34 2c 20 30 78 39 36 0a 00                    x94, 0x96..

00000234 <__c.2413>:
     234:	69 6e 69 74 69 61 6c 69 7a 69 6e 67 20 69 32 63     initializing i2c
     244:	0a 00                                               ..

00000246 <__c.2411>:
     246:	72 65 73 65 74 74 69 6e 67 20 45 45 50 52 4f 4d     resetting EEPROM
     256:	0a 00                                               ..

00000258 <__c.2409>:
     258:	0a 41 54 4d 65 67 61 20 73 74 61 72 74 65 64 0a     .ATMega started.
     268:	73 65 74 20 75 70 20 55 41 52 54 0a 00              set up UART..

00000275 <__c.2288>:
     275:	0a 70 75 6c 6c 69 6e 67 20 64 61 74 61 20 66 72     .pulling data fr
     285:	6f 6d 20 73 65 6e 73 6f 72 73 2e 2e 2e 0a 00        om sensors.....

00000294 <__c.2156>:
     294:	62 65 67 69 6e 6e 69 6e 67 20 6f 6e 20 70 61 67     beginning on pag
     2a4:	65 20 25 30 32 58 0a 72 65 73 65 74 74 69 6e 67     e %02X.resetting
     2b4:	20 70 61 67 65 0a 73 61 76 69 6e 67 20 72 65 73      page.saving res
     2c4:	65 74 20 70 61 67 65 20 74 6f 20 45 45 50 52 4f     et page to EEPRO
     2d4:	4d 0a 00                                            M..

000002d7 <__c.2154>:
     2d7:	73 61 76 69 6e 67 20 63 61 63 68 65 64 20 70 61     saving cached pa
     2e7:	67 65 20 74 6f 20 45 45 50 52 4f 4d 0a 00           ge to EEPROM..

000002f5 <__c.2152>:
     2f5:	6c 6f 67 67 69 6e 67 20 74 6f 20 63 61 63 68 65     logging to cache
     305:	20 66 6f 72 20 70 61 67 65 20 30 78 25 30 32 58      for page 0x%02X
     315:	2c 20 73 74 61 72 74 69 6e 67 20 61 74 20 30 78     , starting at 0x
     325:	25 30 32 58 0a 00                                   %02X..

0000032b <__c.2143>:
     32b:	0a 00                                               ..

0000032d <__c.2141>:
     32d:	25 30 32 58 20 00                                   %02X .

00000333 <__c.2138>:
     333:	50 61 67 65 20 30 78 25 30 32 58 3a 0a 00           Page 0x%02X:..

00000341 <__c.2107>:
     341:	20 2d 20 72 65 61 64 79 21 0a 00                     - ready!..

0000034c <__c.2105>:
     34c:	57 61 69 74 69 6e 67 20 75 6e 74 69 6c 20 45 45     Waiting until EE
     35c:	50 52 4f 4d 20 69 73 20 72 65 61 64 79 00           PROM is ready.

0000036a <__c.2096>:
     36a:	2e 00                                               ..

0000036c <__c.2117>:
     36c:	6e 61 6e 00                                         nan.

00000370 <__c.2115>:
     370:	69 6e 66 00 00 40 7a 10 f3 5a 00 a0 72 4e 18 09     inf..@z..Z..rN..
     380:	00 10 a5 d4 e8 00 00 e8 76 48 17 00 00 e4 0b 54     ........vH.....T
     390:	02 00 00 ca 9a 3b 00 00 00 e1 f5 05 00 00 80 96     .....;..........
     3a0:	98 00 00 00 40 42 0f 00 00 00 a0 86 01 00 00 00     ....@B..........
     3b0:	10 27 00 00 00 00 e8 03 00 00 00 00 64 00 00 00     .'..........d...
     3c0:	00 00 0a 00 00 00 00 00 01 00 00 00 00 00 2c 76     ..............,v
     3d0:	d8 88 dc 67 4f 08 23 df c1 df ae 59 e1 b1 b7 96     ...gO.#....Y....
     3e0:	e5 e3 e4 53 c6 3a e6 51 99 76 96 e8 e6 c2 84 26     ...S.:.Q.v.....&
     3f0:	eb 89 8c 9b 62 ed 40 7c 6f fc ef bc 9c 9f 40 f2     ....b.@|o.....@.
     400:	ba a5 6f a5 f4 90 05 5a 2a f7 5c 93 6b 6c f9 67     ..o....Z*.\.kl.g
     410:	6d c1 1b fc e0 e4 0d 47 fe f5 20 e6 b5 00 d0 ed     m......G.. .....
     420:	90 2e 03 00 94 35 77 05 00 80 84 1e 08 00 00 20     .....5w........ 
     430:	4e 0a 00 00 00 c8 0c 33 33 33 33 0f 98 6e 12 83     N......3333..n..
     440:	11 41 ef 8d 21 14 89 3b e6 55 16 cf fe e6 db 18     .A..!..;.U......
     450:	d1 84 4b 38 1b f7 7c 1d 90 1d a4 bb e4 24 20 32     ..K8..|......$ 2
     460:	84 72 5e 22 81 00 c9 f1 24 ec a1 e5 3d 27           .r^"....$...='

0000046e <__c.2255>:
     46e:	63 64 69 6e 6f 70 73 75 78 58 5b 00                 cdinopsuxX[.

0000047a <__ctors_end>:
     47a:	11 24       	eor	r1, r1
     47c:	1f be       	out	0x3f, r1	; 63
     47e:	cf ef       	ldi	r28, 0xFF	; 255
     480:	d8 e0       	ldi	r29, 0x08	; 8
     482:	de bf       	out	0x3e, r29	; 62
     484:	cd bf       	out	0x3d, r28	; 61

00000486 <__do_copy_data>:
     486:	11 e0       	ldi	r17, 0x01	; 1
     488:	a0 e0       	ldi	r26, 0x00	; 0
     48a:	b1 e0       	ldi	r27, 0x01	; 1
     48c:	e4 e3       	ldi	r30, 0x34	; 52
     48e:	f9 e3       	ldi	r31, 0x39	; 57
     490:	02 c0       	rjmp	.+4      	; 0x496 <__do_copy_data+0x10>
     492:	05 90       	lpm	r0, Z+
     494:	0d 92       	st	X+, r0
     496:	a8 3d       	cpi	r26, 0xD8	; 216
     498:	b1 07       	cpc	r27, r17
     49a:	d9 f7       	brne	.-10     	; 0x492 <__do_copy_data+0xc>

0000049c <__do_clear_bss>:
     49c:	17 e0       	ldi	r17, 0x07	; 7
     49e:	a8 ed       	ldi	r26, 0xD8	; 216
     4a0:	b1 e0       	ldi	r27, 0x01	; 1
     4a2:	01 c0       	rjmp	.+2      	; 0x4a6 <.do_clear_bss_start>

000004a4 <.do_clear_bss_loop>:
     4a4:	1d 92       	st	X+, r1

000004a6 <.do_clear_bss_start>:
     4a6:	af 36       	cpi	r26, 0x6F	; 111
     4a8:	b1 07       	cpc	r27, r17
     4aa:	e1 f7       	brne	.-8      	; 0x4a4 <.do_clear_bss_loop>
     4ac:	0e 94 c3 0f 	call	0x1f86	; 0x1f86 <main>
     4b0:	0c 94 98 1c 	jmp	0x3930	; 0x3930 <_exit>

000004b4 <__bad_interrupt>:
     4b4:	0c 94 00 00 	jmp	0	; 0x0 <__vectors>

000004b8 <uart_stdio_putchar>:
     4b8:	0e 94 7d 0f 	call	0x1efa	; 0x1efa <uart0_putc>
     4bc:	80 e0       	ldi	r24, 0x00	; 0
     4be:	08 95       	ret

000004c0 <uart_stdio_getchar>:
     4c0:	0e 94 46 0f 	call	0x1e8c	; 0x1e8c <uart0_getc>
     4c4:	90 fd       	sbrc	r25, 0
     4c6:	fc cf       	rjmp	.-8      	; 0x4c0 <uart_stdio_getchar>
     4c8:	08 95       	ret

000004ca <delay_us>:
     4ca:	00 97       	sbiw	r24, 0x00	; 0
     4cc:	31 f0       	breq	.+12     	; 0x4da <delay_us+0x10>
     4ce:	2a e0       	ldi	r18, 0x0A	; 10
     4d0:	00 00       	nop
     4d2:	21 50       	subi	r18, 0x01	; 1
     4d4:	e9 f7       	brne	.-6      	; 0x4d0 <delay_us+0x6>
     4d6:	01 97       	sbiw	r24, 0x01	; 1
     4d8:	f8 cf       	rjmp	.-16     	; 0x4ca <delay_us>
     4da:	08 95       	ret

000004dc <delay_ms>:
     4dc:	cf 93       	push	r28
     4de:	df 93       	push	r29
     4e0:	ec 01       	movw	r28, r24
     4e2:	20 97       	sbiw	r28, 0x00	; 0
     4e4:	91 f0       	breq	.+36     	; 0x50a <delay_ms+0x2e>
     4e6:	8a ef       	ldi	r24, 0xFA	; 250
     4e8:	90 e0       	ldi	r25, 0x00	; 0
     4ea:	0e 94 65 02 	call	0x4ca	; 0x4ca <delay_us>
     4ee:	8a ef       	ldi	r24, 0xFA	; 250
     4f0:	90 e0       	ldi	r25, 0x00	; 0
     4f2:	0e 94 65 02 	call	0x4ca	; 0x4ca <delay_us>
     4f6:	8a ef       	ldi	r24, 0xFA	; 250
     4f8:	90 e0       	ldi	r25, 0x00	; 0
     4fa:	0e 94 65 02 	call	0x4ca	; 0x4ca <delay_us>
     4fe:	8a ef       	ldi	r24, 0xFA	; 250
     500:	90 e0       	ldi	r25, 0x00	; 0
     502:	0e 94 65 02 	call	0x4ca	; 0x4ca <delay_us>
     506:	21 97       	sbiw	r28, 0x01	; 1
     508:	ec cf       	rjmp	.-40     	; 0x4e2 <delay_ms+0x6>
     50a:	df 91       	pop	r29
     50c:	cf 91       	pop	r28
     50e:	08 95       	ret

00000510 <screen_command>:
     510:	5c 98       	cbi	0x0b, 4	; 11
     512:	5a 98       	cbi	0x0b, 2	; 11
     514:	98 e0       	ldi	r25, 0x08	; 8
     516:	5d 98       	cbi	0x0b, 5	; 11
     518:	87 ff       	sbrs	r24, 7
     51a:	02 c0       	rjmp	.+4      	; 0x520 <screen_command+0x10>
     51c:	5e 9a       	sbi	0x0b, 6	; 11
     51e:	01 c0       	rjmp	.+2      	; 0x522 <screen_command+0x12>
     520:	5e 98       	cbi	0x0b, 6	; 11
     522:	5d 9a       	sbi	0x0b, 5	; 11
     524:	88 0f       	add	r24, r24
     526:	91 50       	subi	r25, 0x01	; 1
     528:	b1 f7       	brne	.-20     	; 0x516 <screen_command+0x6>
     52a:	08 95       	ret

0000052c <screen_data_out>:
     52c:	5c 98       	cbi	0x0b, 4	; 11
     52e:	5a 9a       	sbi	0x0b, 2	; 11
     530:	98 e0       	ldi	r25, 0x08	; 8
     532:	5d 98       	cbi	0x0b, 5	; 11
     534:	87 ff       	sbrs	r24, 7
     536:	02 c0       	rjmp	.+4      	; 0x53c <screen_data_out+0x10>
     538:	5e 9a       	sbi	0x0b, 6	; 11
     53a:	01 c0       	rjmp	.+2      	; 0x53e <screen_data_out+0x12>
     53c:	5e 98       	cbi	0x0b, 6	; 11
     53e:	5d 9a       	sbi	0x0b, 5	; 11
     540:	88 0f       	add	r24, r24
     542:	91 50       	subi	r25, 0x01	; 1
     544:	b1 f7       	brne	.-20     	; 0x532 <screen_data_out+0x6>
     546:	08 95       	ret

00000548 <screen_setcolumn>:
     548:	cf 93       	push	r28
     54a:	c8 2f       	mov	r28, r24
     54c:	82 95       	swap	r24
     54e:	8f 70       	andi	r24, 0x0F	; 15
     550:	80 61       	ori	r24, 0x10	; 16
     552:	0e 94 88 02 	call	0x510	; 0x510 <screen_command>
     556:	8c 2f       	mov	r24, r28
     558:	8f 70       	andi	r24, 0x0F	; 15
     55a:	cf 91       	pop	r28
     55c:	0c 94 88 02 	jmp	0x510	; 0x510 <screen_command>

00000560 <screen_setpage>:
     560:	80 6b       	ori	r24, 0xB0	; 176
     562:	0c 94 88 02 	jmp	0x510	; 0x510 <screen_command>

00000566 <screen_refresh_rect>:
     566:	df 92       	push	r13
     568:	ef 92       	push	r14
     56a:	ff 92       	push	r15
     56c:	0f 93       	push	r16
     56e:	1f 93       	push	r17
     570:	cf 93       	push	r28
     572:	df 93       	push	r29
     574:	f8 2e       	mov	r15, r24
     576:	e4 2e       	mov	r14, r20
     578:	48 17       	cp	r20, r24
     57a:	10 f4       	brcc	.+4      	; 0x580 <screen_refresh_rect+0x1a>
     57c:	f4 2e       	mov	r15, r20
     57e:	e8 2e       	mov	r14, r24
     580:	26 17       	cp	r18, r22
     582:	18 f4       	brcc	.+6      	; 0x58a <screen_refresh_rect+0x24>
     584:	86 2f       	mov	r24, r22
     586:	62 2f       	mov	r22, r18
     588:	28 2f       	mov	r18, r24
     58a:	16 2f       	mov	r17, r22
     58c:	16 95       	lsr	r17
     58e:	16 95       	lsr	r17
     590:	16 95       	lsr	r17
     592:	30 e0       	ldi	r19, 0x00	; 0
     594:	2f 5f       	subi	r18, 0xFF	; 255
     596:	3f 4f       	sbci	r19, 0xFF	; 255
     598:	83 e0       	ldi	r24, 0x03	; 3
     59a:	35 95       	asr	r19
     59c:	27 95       	ror	r18
     59e:	8a 95       	dec	r24
     5a0:	e1 f7       	brne	.-8      	; 0x59a <screen_refresh_rect+0x34>
     5a2:	d2 2e       	mov	r13, r18
     5a4:	d1 16       	cp	r13, r17
     5a6:	c8 f0       	brcs	.+50     	; 0x5da <screen_refresh_rect+0x74>
     5a8:	81 2f       	mov	r24, r17
     5aa:	0e 94 b0 02 	call	0x560	; 0x560 <screen_setpage>
     5ae:	0f 2d       	mov	r16, r15
     5b0:	80 e8       	ldi	r24, 0x80	; 128
     5b2:	18 9f       	mul	r17, r24
     5b4:	e0 01       	movw	r28, r0
     5b6:	11 24       	eor	r1, r1
     5b8:	e0 16       	cp	r14, r16
     5ba:	68 f0       	brcs	.+26     	; 0x5d6 <screen_refresh_rect+0x70>
     5bc:	80 2f       	mov	r24, r16
     5be:	0e 94 a4 02 	call	0x548	; 0x548 <screen_setcolumn>
     5c2:	fe 01       	movw	r30, r28
     5c4:	e0 0f       	add	r30, r16
     5c6:	f1 1d       	adc	r31, r1
     5c8:	e7 59       	subi	r30, 0x97	; 151
     5ca:	fd 4f       	sbci	r31, 0xFD	; 253
     5cc:	80 81       	ld	r24, Z
     5ce:	0e 94 96 02 	call	0x52c	; 0x52c <screen_data_out>
     5d2:	0f 5f       	subi	r16, 0xFF	; 255
     5d4:	f1 cf       	rjmp	.-30     	; 0x5b8 <screen_refresh_rect+0x52>
     5d6:	1f 5f       	subi	r17, 0xFF	; 255
     5d8:	e5 cf       	rjmp	.-54     	; 0x5a4 <screen_refresh_rect+0x3e>
     5da:	df 91       	pop	r29
     5dc:	cf 91       	pop	r28
     5de:	1f 91       	pop	r17
     5e0:	0f 91       	pop	r16
     5e2:	ff 90       	pop	r15
     5e4:	ef 90       	pop	r14
     5e6:	df 90       	pop	r13
     5e8:	08 95       	ret

000005ea <screen_refresh>:
     5ea:	ff 92       	push	r15
     5ec:	0f 93       	push	r16
     5ee:	1f 93       	push	r17
     5f0:	cf 93       	push	r28
     5f2:	df 93       	push	r29
     5f4:	09 e6       	ldi	r16, 0x69	; 105
     5f6:	12 e0       	ldi	r17, 0x02	; 2
     5f8:	f1 2c       	mov	r15, r1
     5fa:	8f 2d       	mov	r24, r15
     5fc:	0e 94 b0 02 	call	0x560	; 0x560 <screen_setpage>
     600:	c0 e0       	ldi	r28, 0x00	; 0
     602:	d0 e0       	ldi	r29, 0x00	; 0
     604:	c0 38       	cpi	r28, 0x80	; 128
     606:	d1 05       	cpc	r29, r1
     608:	59 f0       	breq	.+22     	; 0x620 <screen_refresh+0x36>
     60a:	8c 2f       	mov	r24, r28
     60c:	0e 94 a4 02 	call	0x548	; 0x548 <screen_setcolumn>
     610:	f8 01       	movw	r30, r16
     612:	ec 0f       	add	r30, r28
     614:	fd 1f       	adc	r31, r29
     616:	80 81       	ld	r24, Z
     618:	0e 94 96 02 	call	0x52c	; 0x52c <screen_data_out>
     61c:	21 96       	adiw	r28, 0x01	; 1
     61e:	f2 cf       	rjmp	.-28     	; 0x604 <screen_refresh+0x1a>
     620:	f3 94       	inc	r15
     622:	00 58       	subi	r16, 0x80	; 128
     624:	1f 4f       	sbci	r17, 0xFF	; 255
     626:	88 e0       	ldi	r24, 0x08	; 8
     628:	f8 12       	cpse	r15, r24
     62a:	e7 cf       	rjmp	.-50     	; 0x5fa <screen_refresh+0x10>
     62c:	df 91       	pop	r29
     62e:	cf 91       	pop	r28
     630:	1f 91       	pop	r17
     632:	0f 91       	pop	r16
     634:	ff 90       	pop	r15
     636:	08 95       	ret

00000638 <screen_init>:
     638:	5b 98       	cbi	0x0b, 3	; 11
     63a:	5b 9a       	sbi	0x0b, 3	; 11
     63c:	80 e4       	ldi	r24, 0x40	; 64
     63e:	0e 94 88 02 	call	0x510	; 0x510 <screen_command>
     642:	81 ea       	ldi	r24, 0xA1	; 161
     644:	0e 94 88 02 	call	0x510	; 0x510 <screen_command>
     648:	80 ec       	ldi	r24, 0xC0	; 192
     64a:	0e 94 88 02 	call	0x510	; 0x510 <screen_command>
     64e:	86 ea       	ldi	r24, 0xA6	; 166
     650:	0e 94 88 02 	call	0x510	; 0x510 <screen_command>
     654:	82 ea       	ldi	r24, 0xA2	; 162
     656:	0e 94 88 02 	call	0x510	; 0x510 <screen_command>
     65a:	8f e2       	ldi	r24, 0x2F	; 47
     65c:	0e 94 88 02 	call	0x510	; 0x510 <screen_command>
     660:	88 ef       	ldi	r24, 0xF8	; 248
     662:	0e 94 88 02 	call	0x510	; 0x510 <screen_command>
     666:	80 e0       	ldi	r24, 0x00	; 0
     668:	0e 94 88 02 	call	0x510	; 0x510 <screen_command>
     66c:	87 e2       	ldi	r24, 0x27	; 39
     66e:	0e 94 88 02 	call	0x510	; 0x510 <screen_command>
     672:	81 e8       	ldi	r24, 0x81	; 129
     674:	0e 94 88 02 	call	0x510	; 0x510 <screen_command>
     678:	80 e1       	ldi	r24, 0x10	; 16
     67a:	0e 94 88 02 	call	0x510	; 0x510 <screen_command>
     67e:	8c ea       	ldi	r24, 0xAC	; 172
     680:	0e 94 88 02 	call	0x510	; 0x510 <screen_command>
     684:	80 e0       	ldi	r24, 0x00	; 0
     686:	0e 94 88 02 	call	0x510	; 0x510 <screen_command>
     68a:	8f ea       	ldi	r24, 0xAF	; 175
     68c:	0c 94 88 02 	jmp	0x510	; 0x510 <screen_command>

00000690 <screen_getpixel>:
     690:	96 2f       	mov	r25, r22
     692:	97 70       	andi	r25, 0x07	; 7
     694:	21 e0       	ldi	r18, 0x01	; 1
     696:	30 e0       	ldi	r19, 0x00	; 0
     698:	01 c0       	rjmp	.+2      	; 0x69c <screen_getpixel+0xc>
     69a:	22 0f       	add	r18, r18
     69c:	9a 95       	dec	r25
     69e:	ea f7       	brpl	.-6      	; 0x69a <screen_getpixel+0xa>
     6a0:	66 95       	lsr	r22
     6a2:	66 95       	lsr	r22
     6a4:	66 95       	lsr	r22
     6a6:	90 e8       	ldi	r25, 0x80	; 128
     6a8:	69 9f       	mul	r22, r25
     6aa:	f0 01       	movw	r30, r0
     6ac:	11 24       	eor	r1, r1
     6ae:	e8 0f       	add	r30, r24
     6b0:	f1 1d       	adc	r31, r1
     6b2:	e7 59       	subi	r30, 0x97	; 151
     6b4:	fd 4f       	sbci	r31, 0xFD	; 253
     6b6:	80 81       	ld	r24, Z
     6b8:	82 23       	and	r24, r18
     6ba:	08 95       	ret

000006bc <screen_draw_rect>:
     6bc:	6f 92       	push	r6
     6be:	7f 92       	push	r7
     6c0:	9f 92       	push	r9
     6c2:	af 92       	push	r10
     6c4:	bf 92       	push	r11
     6c6:	cf 92       	push	r12
     6c8:	df 92       	push	r13
     6ca:	ef 92       	push	r14
     6cc:	ff 92       	push	r15
     6ce:	0f 93       	push	r16
     6d0:	1f 93       	push	r17
     6d2:	cf 93       	push	r28
     6d4:	df 93       	push	r29
     6d6:	00 d0       	rcall	.+0      	; 0x6d8 <screen_draw_rect+0x1c>
     6d8:	cd b7       	in	r28, 0x3d	; 61
     6da:	de b7       	in	r29, 0x3e	; 62
     6dc:	18 2f       	mov	r17, r24
     6de:	c6 2e       	mov	r12, r22
     6e0:	48 17       	cp	r20, r24
     6e2:	10 f4       	brcc	.+4      	; 0x6e8 <screen_draw_rect+0x2c>
     6e4:	14 2f       	mov	r17, r20
     6e6:	48 2f       	mov	r20, r24
     6e8:	2c 15       	cp	r18, r12
     6ea:	18 f4       	brcc	.+6      	; 0x6f2 <screen_draw_rect+0x36>
     6ec:	8c 2d       	mov	r24, r12
     6ee:	c2 2e       	mov	r12, r18
     6f0:	28 2f       	mov	r18, r24
     6f2:	80 2f       	mov	r24, r16
     6f4:	81 70       	andi	r24, 0x01	; 1
     6f6:	b8 2e       	mov	r11, r24
     6f8:	ee 24       	eor	r14, r14
     6fa:	e3 94       	inc	r14
     6fc:	f1 2c       	mov	r15, r1
     6fe:	41 17       	cp	r20, r17
     700:	08 f4       	brcc	.+2      	; 0x704 <screen_draw_rect+0x48>
     702:	52 c0       	rjmp	.+164    	; 0x7a8 <screen_draw_rect+0xec>
     704:	dc 2c       	mov	r13, r12
     706:	61 2e       	mov	r6, r17
     708:	71 2c       	mov	r7, r1
     70a:	2d 15       	cp	r18, r13
     70c:	08 f4       	brcc	.+2      	; 0x710 <screen_draw_rect+0x54>
     70e:	4a c0       	rjmp	.+148    	; 0x7a4 <screen_draw_rect+0xe8>
     710:	9d 2c       	mov	r9, r13
     712:	96 94       	lsr	r9
     714:	96 94       	lsr	r9
     716:	96 94       	lsr	r9
     718:	ed 2d       	mov	r30, r13
     71a:	e7 70       	andi	r30, 0x07	; 7
     71c:	ae 2e       	mov	r10, r30
     71e:	02 30       	cpi	r16, 0x02	; 2
     720:	39 f5       	brne	.+78     	; 0x770 <screen_draw_rect+0xb4>
     722:	6d 2d       	mov	r22, r13
     724:	81 2f       	mov	r24, r17
     726:	2a 83       	std	Y+2, r18	; 0x02
     728:	49 83       	std	Y+1, r20	; 0x01
     72a:	0e 94 48 03 	call	0x690	; 0x690 <screen_getpixel>
     72e:	2a 81       	ldd	r18, Y+2	; 0x02
     730:	49 81       	ldd	r20, Y+1	; 0x01
     732:	f3 01       	movw	r30, r6
     734:	88 23       	and	r24, r24
     736:	71 f0       	breq	.+28     	; 0x754 <screen_draw_rect+0x98>
     738:	80 e8       	ldi	r24, 0x80	; 128
     73a:	98 9e       	mul	r9, r24
     73c:	e0 0d       	add	r30, r0
     73e:	f1 1d       	adc	r31, r1
     740:	11 24       	eor	r1, r1
     742:	e7 59       	subi	r30, 0x97	; 151
     744:	fd 4f       	sbci	r31, 0xFD	; 253
     746:	d7 01       	movw	r26, r14
     748:	0a 2c       	mov	r0, r10
     74a:	01 c0       	rjmp	.+2      	; 0x74e <screen_draw_rect+0x92>
     74c:	aa 0f       	add	r26, r26
     74e:	0a 94       	dec	r0
     750:	ea f7       	brpl	.-6      	; 0x74c <screen_draw_rect+0x90>
     752:	22 c0       	rjmp	.+68     	; 0x798 <screen_draw_rect+0xdc>
     754:	80 e8       	ldi	r24, 0x80	; 128
     756:	98 9e       	mul	r9, r24
     758:	e0 0d       	add	r30, r0
     75a:	f1 1d       	adc	r31, r1
     75c:	11 24       	eor	r1, r1
     75e:	e7 59       	subi	r30, 0x97	; 151
     760:	fd 4f       	sbci	r31, 0xFD	; 253
     762:	d7 01       	movw	r26, r14
     764:	0a 2c       	mov	r0, r10
     766:	01 c0       	rjmp	.+2      	; 0x76a <screen_draw_rect+0xae>
     768:	aa 0f       	add	r26, r26
     76a:	0a 94       	dec	r0
     76c:	ea f7       	brpl	.-6      	; 0x768 <screen_draw_rect+0xac>
     76e:	10 c0       	rjmp	.+32     	; 0x790 <screen_draw_rect+0xd4>
     770:	f3 01       	movw	r30, r6
     772:	80 e8       	ldi	r24, 0x80	; 128
     774:	98 9e       	mul	r9, r24
     776:	e0 0d       	add	r30, r0
     778:	f1 1d       	adc	r31, r1
     77a:	11 24       	eor	r1, r1
     77c:	e7 59       	subi	r30, 0x97	; 151
     77e:	fd 4f       	sbci	r31, 0xFD	; 253
     780:	d7 01       	movw	r26, r14
     782:	0a 2c       	mov	r0, r10
     784:	01 c0       	rjmp	.+2      	; 0x788 <screen_draw_rect+0xcc>
     786:	aa 0f       	add	r26, r26
     788:	0a 94       	dec	r0
     78a:	ea f7       	brpl	.-6      	; 0x786 <screen_draw_rect+0xca>
     78c:	bb 20       	and	r11, r11
     78e:	21 f0       	breq	.+8      	; 0x798 <screen_draw_rect+0xdc>
     790:	80 81       	ld	r24, Z
     792:	8a 2b       	or	r24, r26
     794:	80 83       	st	Z, r24
     796:	04 c0       	rjmp	.+8      	; 0x7a0 <screen_draw_rect+0xe4>
     798:	a0 95       	com	r26
     79a:	80 81       	ld	r24, Z
     79c:	a8 23       	and	r26, r24
     79e:	a0 83       	st	Z, r26
     7a0:	d3 94       	inc	r13
     7a2:	b3 cf       	rjmp	.-154    	; 0x70a <screen_draw_rect+0x4e>
     7a4:	1f 5f       	subi	r17, 0xFF	; 255
     7a6:	ab cf       	rjmp	.-170    	; 0x6fe <screen_draw_rect+0x42>
     7a8:	0f 90       	pop	r0
     7aa:	0f 90       	pop	r0
     7ac:	df 91       	pop	r29
     7ae:	cf 91       	pop	r28
     7b0:	1f 91       	pop	r17
     7b2:	0f 91       	pop	r16
     7b4:	ff 90       	pop	r15
     7b6:	ef 90       	pop	r14
     7b8:	df 90       	pop	r13
     7ba:	cf 90       	pop	r12
     7bc:	bf 90       	pop	r11
     7be:	af 90       	pop	r10
     7c0:	9f 90       	pop	r9
     7c2:	7f 90       	pop	r7
     7c4:	6f 90       	pop	r6
     7c6:	08 95       	ret

000007c8 <screen_blit_xbm>:
     7c8:	2f 92       	push	r2
     7ca:	3f 92       	push	r3
     7cc:	4f 92       	push	r4
     7ce:	5f 92       	push	r5
     7d0:	6f 92       	push	r6
     7d2:	7f 92       	push	r7
     7d4:	8f 92       	push	r8
     7d6:	af 92       	push	r10
     7d8:	bf 92       	push	r11
     7da:	cf 92       	push	r12
     7dc:	df 92       	push	r13
     7de:	ef 92       	push	r14
     7e0:	ff 92       	push	r15
     7e2:	0f 93       	push	r16
     7e4:	1f 93       	push	r17
     7e6:	cf 93       	push	r28
     7e8:	df 93       	push	r29
     7ea:	cd b7       	in	r28, 0x3d	; 61
     7ec:	de b7       	in	r29, 0x3e	; 62
     7ee:	b2 2e       	mov	r11, r18
     7f0:	70 e0       	ldi	r23, 0x00	; 0
     7f2:	ab 01       	movw	r20, r22
     7f4:	41 50       	subi	r20, 0x01	; 1
     7f6:	51 09       	sbc	r21, r1
     7f8:	57 ff       	sbrs	r21, 7
     7fa:	03 c0       	rjmp	.+6      	; 0x802 <screen_blit_xbm+0x3a>
     7fc:	ab 01       	movw	r20, r22
     7fe:	4a 5f       	subi	r20, 0xFA	; 250
     800:	5f 4f       	sbci	r21, 0xFF	; 255
     802:	23 e0       	ldi	r18, 0x03	; 3
     804:	55 95       	asr	r21
     806:	47 95       	ror	r20
     808:	2a 95       	dec	r18
     80a:	e1 f7       	brne	.-8      	; 0x804 <screen_blit_xbm+0x3c>
     80c:	ff 24       	eor	r15, r15
     80e:	f3 94       	inc	r15
     810:	f4 0e       	add	r15, r20
     812:	30 e0       	ldi	r19, 0x00	; 0
     814:	41 e0       	ldi	r20, 0x01	; 1
     816:	50 e0       	ldi	r21, 0x00	; 0
     818:	3a 15       	cp	r19, r10
     81a:	09 f4       	brne	.+2      	; 0x81e <screen_blit_xbm+0x56>
     81c:	54 c0       	rjmp	.+168    	; 0x8c6 <screen_blit_xbm+0xfe>
     81e:	63 2f       	mov	r22, r19
     820:	6e 0d       	add	r22, r14
     822:	46 2e       	mov	r4, r22
     824:	46 94       	lsr	r4
     826:	46 94       	lsr	r4
     828:	46 94       	lsr	r4
     82a:	51 2c       	mov	r5, r1
     82c:	67 70       	andi	r22, 0x07	; 7
     82e:	3a 01       	movw	r6, r20
     830:	02 c0       	rjmp	.+4      	; 0x836 <screen_blit_xbm+0x6e>
     832:	66 0c       	add	r6, r6
     834:	77 1c       	adc	r7, r7
     836:	6a 95       	dec	r22
     838:	e2 f7       	brpl	.-8      	; 0x832 <screen_blit_xbm+0x6a>
     83a:	10 e0       	ldi	r17, 0x00	; 0
     83c:	a3 2f       	mov	r26, r19
     83e:	ab 0d       	add	r26, r11
     840:	b0 e0       	ldi	r27, 0x00	; 0
     842:	18 15       	cp	r17, r8
     844:	f1 f1       	breq	.+124    	; 0x8c2 <screen_blit_xbm+0xfa>
     846:	61 2f       	mov	r22, r17
     848:	6c 0d       	add	r22, r12
     84a:	fc 01       	movw	r30, r24
     84c:	f6 9e       	mul	r15, r22
     84e:	e0 0d       	add	r30, r0
     850:	f1 1d       	adc	r31, r1
     852:	11 24       	eor	r1, r1
     854:	e4 0d       	add	r30, r4
     856:	f5 1d       	adc	r31, r5
     858:	60 81       	ld	r22, Z
     85a:	70 e0       	ldi	r23, 0x00	; 0
     85c:	66 21       	and	r22, r6
     85e:	77 21       	and	r23, r7
     860:	f1 2f       	mov	r31, r17
     862:	f0 0f       	add	r31, r16
     864:	3f 2e       	mov	r3, r31
     866:	36 94       	lsr	r3
     868:	36 94       	lsr	r3
     86a:	36 94       	lsr	r3
     86c:	f7 70       	andi	r31, 0x07	; 7
     86e:	df 2e       	mov	r13, r31
     870:	67 2b       	or	r22, r23
     872:	99 f0       	breq	.+38     	; 0x89a <screen_blit_xbm+0xd2>
     874:	bd 01       	movw	r22, r26
     876:	e0 e8       	ldi	r30, 0x80	; 128
     878:	3e 9e       	mul	r3, r30
     87a:	60 0d       	add	r22, r0
     87c:	71 1d       	adc	r23, r1
     87e:	11 24       	eor	r1, r1
     880:	67 59       	subi	r22, 0x97	; 151
     882:	7d 4f       	sbci	r23, 0xFD	; 253
     884:	1b 01       	movw	r2, r22
     886:	ba 01       	movw	r22, r20
     888:	01 c0       	rjmp	.+2      	; 0x88c <screen_blit_xbm+0xc4>
     88a:	66 0f       	add	r22, r22
     88c:	fa 95       	dec	r31
     88e:	ea f7       	brpl	.-6      	; 0x88a <screen_blit_xbm+0xc2>
     890:	f1 01       	movw	r30, r2
     892:	70 81       	ld	r23, Z
     894:	76 2b       	or	r23, r22
     896:	70 83       	st	Z, r23
     898:	12 c0       	rjmp	.+36     	; 0x8be <screen_blit_xbm+0xf6>
     89a:	fd 01       	movw	r30, r26
     89c:	20 e8       	ldi	r18, 0x80	; 128
     89e:	32 9e       	mul	r3, r18
     8a0:	e0 0d       	add	r30, r0
     8a2:	f1 1d       	adc	r31, r1
     8a4:	11 24       	eor	r1, r1
     8a6:	e7 59       	subi	r30, 0x97	; 151
     8a8:	fd 4f       	sbci	r31, 0xFD	; 253
     8aa:	ba 01       	movw	r22, r20
     8ac:	0d 2c       	mov	r0, r13
     8ae:	01 c0       	rjmp	.+2      	; 0x8b2 <screen_blit_xbm+0xea>
     8b0:	66 0f       	add	r22, r22
     8b2:	0a 94       	dec	r0
     8b4:	ea f7       	brpl	.-6      	; 0x8b0 <screen_blit_xbm+0xe8>
     8b6:	60 95       	com	r22
     8b8:	70 81       	ld	r23, Z
     8ba:	67 23       	and	r22, r23
     8bc:	60 83       	st	Z, r22
     8be:	1f 5f       	subi	r17, 0xFF	; 255
     8c0:	c0 cf       	rjmp	.-128    	; 0x842 <screen_blit_xbm+0x7a>
     8c2:	3f 5f       	subi	r19, 0xFF	; 255
     8c4:	a9 cf       	rjmp	.-174    	; 0x818 <screen_blit_xbm+0x50>
     8c6:	df 91       	pop	r29
     8c8:	cf 91       	pop	r28
     8ca:	1f 91       	pop	r17
     8cc:	0f 91       	pop	r16
     8ce:	ff 90       	pop	r15
     8d0:	ef 90       	pop	r14
     8d2:	df 90       	pop	r13
     8d4:	cf 90       	pop	r12
     8d6:	bf 90       	pop	r11
     8d8:	af 90       	pop	r10
     8da:	8f 90       	pop	r8
     8dc:	7f 90       	pop	r7
     8de:	6f 90       	pop	r6
     8e0:	5f 90       	pop	r5
     8e2:	4f 90       	pop	r4
     8e4:	3f 90       	pop	r3
     8e6:	2f 90       	pop	r2
     8e8:	08 95       	ret

000008ea <screen_draw_numeral>:
     8ea:	8f 92       	push	r8
     8ec:	af 92       	push	r10
     8ee:	cf 92       	push	r12
     8f0:	ef 92       	push	r14
     8f2:	0f 93       	push	r16
     8f4:	cf 93       	push	r28
     8f6:	df 93       	push	r29
     8f8:	ec 01       	movw	r28, r24
     8fa:	06 2f       	mov	r16, r22
     8fc:	42 30       	cpi	r20, 0x02	; 2
     8fe:	60 f0       	brcs	.+24     	; 0x918 <__stack+0x19>
     900:	84 2f       	mov	r24, r20
     902:	88 0f       	add	r24, r24
     904:	84 0f       	add	r24, r20
     906:	88 0f       	add	r24, r24
     908:	83 50       	subi	r24, 0x03	; 3
     90a:	75 e0       	ldi	r23, 0x05	; 5
     90c:	87 2e       	mov	r8, r23
     90e:	e6 e0       	ldi	r30, 0x06	; 6
     910:	ae 2e       	mov	r10, r30
     912:	c1 2c       	mov	r12, r1
     914:	e8 2e       	mov	r14, r24
     916:	08 c0       	rjmp	.+16     	; 0x928 <__stack+0x29>
     918:	65 e0       	ldi	r22, 0x05	; 5
     91a:	86 2e       	mov	r8, r22
     91c:	41 11       	cpse	r20, r1
     91e:	0e c0       	rjmp	.+28     	; 0x93c <__stack+0x3d>
     920:	56 e0       	ldi	r21, 0x06	; 6
     922:	a5 2e       	mov	r10, r21
     924:	c1 2c       	mov	r12, r1
     926:	e1 2c       	mov	r14, r1
     928:	28 81       	ld	r18, Y
     92a:	45 e0       	ldi	r20, 0x05	; 5
     92c:	69 e3       	ldi	r22, 0x39	; 57
     92e:	82 e2       	ldi	r24, 0x22	; 34
     930:	91 e0       	ldi	r25, 0x01	; 1
     932:	0e 94 e4 03 	call	0x7c8	; 0x7c8 <screen_blit_xbm>
     936:	88 81       	ld	r24, Y
     938:	8a 5f       	subi	r24, 0xFA	; 250
     93a:	0e c0       	rjmp	.+28     	; 0x958 <__stack+0x59>
     93c:	33 e0       	ldi	r19, 0x03	; 3
     93e:	a3 2e       	mov	r10, r19
     940:	c1 2c       	mov	r12, r1
     942:	46 e0       	ldi	r20, 0x06	; 6
     944:	e4 2e       	mov	r14, r20
     946:	28 81       	ld	r18, Y
     948:	45 e0       	ldi	r20, 0x05	; 5
     94a:	69 e3       	ldi	r22, 0x39	; 57
     94c:	82 e2       	ldi	r24, 0x22	; 34
     94e:	91 e0       	ldi	r25, 0x01	; 1
     950:	0e 94 e4 03 	call	0x7c8	; 0x7c8 <screen_blit_xbm>
     954:	88 81       	ld	r24, Y
     956:	8d 5f       	subi	r24, 0xFD	; 253
     958:	88 83       	st	Y, r24
     95a:	df 91       	pop	r29
     95c:	cf 91       	pop	r28
     95e:	0f 91       	pop	r16
     960:	ef 90       	pop	r14
     962:	cf 90       	pop	r12
     964:	af 90       	pop	r10
     966:	8f 90       	pop	r8
     968:	08 95       	ret

0000096a <screen_draw_number>:
     96a:	ff 92       	push	r15
     96c:	0f 93       	push	r16
     96e:	1f 93       	push	r17
     970:	cf 93       	push	r28
     972:	df 93       	push	r29
     974:	1f 92       	push	r1
     976:	cd b7       	in	r28, 0x3d	; 61
     978:	de b7       	in	r29, 0x3e	; 62
     97a:	89 83       	std	Y+1, r24	; 0x01
     97c:	f6 2e       	mov	r15, r22
     97e:	8a 01       	movw	r16, r20
     980:	40 31       	cpi	r20, 0x10	; 16
     982:	87 e2       	ldi	r24, 0x27	; 39
     984:	58 07       	cpc	r21, r24
     986:	60 f0       	brcs	.+24     	; 0x9a0 <screen_draw_number+0x36>
     988:	ca 01       	movw	r24, r20
     98a:	60 e1       	ldi	r22, 0x10	; 16
     98c:	77 e2       	ldi	r23, 0x27	; 39
     98e:	0e 94 4f 17 	call	0x2e9e	; 0x2e9e <__udivmodhi4>
     992:	46 2f       	mov	r20, r22
     994:	6f 2d       	mov	r22, r15
     996:	ce 01       	movw	r24, r28
     998:	01 96       	adiw	r24, 0x01	; 1
     99a:	0e 94 75 04 	call	0x8ea	; 0x8ea <screen_draw_numeral>
     99e:	04 c0       	rjmp	.+8      	; 0x9a8 <screen_draw_number+0x3e>
     9a0:	48 3e       	cpi	r20, 0xE8	; 232
     9a2:	83 e0       	ldi	r24, 0x03	; 3
     9a4:	58 07       	cpc	r21, r24
     9a6:	80 f0       	brcs	.+32     	; 0x9c8 <screen_draw_number+0x5e>
     9a8:	c8 01       	movw	r24, r16
     9aa:	60 e1       	ldi	r22, 0x10	; 16
     9ac:	77 e2       	ldi	r23, 0x27	; 39
     9ae:	0e 94 4f 17 	call	0x2e9e	; 0x2e9e <__udivmodhi4>
     9b2:	68 ee       	ldi	r22, 0xE8	; 232
     9b4:	73 e0       	ldi	r23, 0x03	; 3
     9b6:	0e 94 4f 17 	call	0x2e9e	; 0x2e9e <__udivmodhi4>
     9ba:	46 2f       	mov	r20, r22
     9bc:	6f 2d       	mov	r22, r15
     9be:	ce 01       	movw	r24, r28
     9c0:	01 96       	adiw	r24, 0x01	; 1
     9c2:	0e 94 75 04 	call	0x8ea	; 0x8ea <screen_draw_numeral>
     9c6:	03 c0       	rjmp	.+6      	; 0x9ce <screen_draw_number+0x64>
     9c8:	44 36       	cpi	r20, 0x64	; 100
     9ca:	51 05       	cpc	r21, r1
     9cc:	80 f0       	brcs	.+32     	; 0x9ee <screen_draw_number+0x84>
     9ce:	c8 01       	movw	r24, r16
     9d0:	68 ee       	ldi	r22, 0xE8	; 232
     9d2:	73 e0       	ldi	r23, 0x03	; 3
     9d4:	0e 94 4f 17 	call	0x2e9e	; 0x2e9e <__udivmodhi4>
     9d8:	64 e6       	ldi	r22, 0x64	; 100
     9da:	70 e0       	ldi	r23, 0x00	; 0
     9dc:	0e 94 4f 17 	call	0x2e9e	; 0x2e9e <__udivmodhi4>
     9e0:	46 2f       	mov	r20, r22
     9e2:	6f 2d       	mov	r22, r15
     9e4:	ce 01       	movw	r24, r28
     9e6:	01 96       	adiw	r24, 0x01	; 1
     9e8:	0e 94 75 04 	call	0x8ea	; 0x8ea <screen_draw_numeral>
     9ec:	03 c0       	rjmp	.+6      	; 0x9f4 <screen_draw_number+0x8a>
     9ee:	4a 30       	cpi	r20, 0x0A	; 10
     9f0:	51 05       	cpc	r21, r1
     9f2:	78 f0       	brcs	.+30     	; 0xa12 <screen_draw_number+0xa8>
     9f4:	c8 01       	movw	r24, r16
     9f6:	64 e6       	ldi	r22, 0x64	; 100
     9f8:	70 e0       	ldi	r23, 0x00	; 0
     9fa:	0e 94 4f 17 	call	0x2e9e	; 0x2e9e <__udivmodhi4>
     9fe:	6a e0       	ldi	r22, 0x0A	; 10
     a00:	70 e0       	ldi	r23, 0x00	; 0
     a02:	0e 94 4f 17 	call	0x2e9e	; 0x2e9e <__udivmodhi4>
     a06:	46 2f       	mov	r20, r22
     a08:	6f 2d       	mov	r22, r15
     a0a:	ce 01       	movw	r24, r28
     a0c:	01 96       	adiw	r24, 0x01	; 1
     a0e:	0e 94 75 04 	call	0x8ea	; 0x8ea <screen_draw_numeral>
     a12:	c8 01       	movw	r24, r16
     a14:	6a e0       	ldi	r22, 0x0A	; 10
     a16:	70 e0       	ldi	r23, 0x00	; 0
     a18:	0e 94 4f 17 	call	0x2e9e	; 0x2e9e <__udivmodhi4>
     a1c:	48 2f       	mov	r20, r24
     a1e:	6f 2d       	mov	r22, r15
     a20:	ce 01       	movw	r24, r28
     a22:	01 96       	adiw	r24, 0x01	; 1
     a24:	0e 94 75 04 	call	0x8ea	; 0x8ea <screen_draw_numeral>
     a28:	0f 90       	pop	r0
     a2a:	df 91       	pop	r29
     a2c:	cf 91       	pop	r28
     a2e:	1f 91       	pop	r17
     a30:	0f 91       	pop	r16
     a32:	ff 90       	pop	r15
     a34:	08 95       	ret

00000a36 <screen_draw_temp>:
     a36:	ef 92       	push	r14
     a38:	ff 92       	push	r15
     a3a:	0f 93       	push	r16
     a3c:	1f 93       	push	r17
     a3e:	cf 93       	push	r28
     a40:	df 93       	push	r29
     a42:	1f 92       	push	r1
     a44:	cd b7       	in	r28, 0x3d	; 61
     a46:	de b7       	in	r29, 0x3e	; 62
     a48:	89 83       	std	Y+1, r24	; 0x01
     a4a:	16 2f       	mov	r17, r22
     a4c:	7a 01       	movw	r14, r20
     a4e:	57 ff       	sbrs	r21, 7
     a50:	09 c0       	rjmp	.+18     	; 0xa64 <screen_draw_temp+0x2e>
     a52:	4e ef       	ldi	r20, 0xFE	; 254
     a54:	48 0f       	add	r20, r24
     a56:	01 e0       	ldi	r16, 0x01	; 1
     a58:	62 e0       	ldi	r22, 0x02	; 2
     a5a:	61 0f       	add	r22, r17
     a5c:	26 2f       	mov	r18, r22
     a5e:	84 50       	subi	r24, 0x04	; 4
     a60:	0e 94 5e 03 	call	0x6bc	; 0x6bc <screen_draw_rect>
     a64:	a7 01       	movw	r20, r14
     a66:	f7 fe       	sbrs	r15, 7
     a68:	03 c0       	rjmp	.+6      	; 0xa70 <screen_draw_temp+0x3a>
     a6a:	51 95       	neg	r21
     a6c:	41 95       	neg	r20
     a6e:	51 09       	sbc	r21, r1
     a70:	ca 01       	movw	r24, r20
     a72:	f4 e0       	ldi	r31, 0x04	; 4
     a74:	95 95       	asr	r25
     a76:	87 95       	ror	r24
     a78:	fa 95       	dec	r31
     a7a:	e1 f7       	brne	.-8      	; 0xa74 <screen_draw_temp+0x3e>
     a7c:	fa 01       	movw	r30, r20
     a7e:	ef 70       	andi	r30, 0x0F	; 15
     a80:	ff 27       	eor	r31, r31
     a82:	e2 55       	subi	r30, 0x52	; 82
     a84:	fe 4f       	sbci	r31, 0xFE	; 254
     a86:	f0 80       	ld	r15, Z
     a88:	0a e0       	ldi	r16, 0x0A	; 10
     a8a:	60 2f       	mov	r22, r16
     a8c:	0e 94 35 17 	call	0x2e6a	; 0x2e6a <__udivmodqi4>
     a90:	e9 2e       	mov	r14, r25
     a92:	48 2f       	mov	r20, r24
     a94:	61 2f       	mov	r22, r17
     a96:	ce 01       	movw	r24, r28
     a98:	01 96       	adiw	r24, 0x01	; 1
     a9a:	0e 94 75 04 	call	0x8ea	; 0x8ea <screen_draw_numeral>
     a9e:	4e 2d       	mov	r20, r14
     aa0:	61 2f       	mov	r22, r17
     aa2:	ce 01       	movw	r24, r28
     aa4:	01 96       	adiw	r24, 0x01	; 1
     aa6:	0e 94 75 04 	call	0x8ea	; 0x8ea <screen_draw_numeral>
     aaa:	94 e0       	ldi	r25, 0x04	; 4
     aac:	91 0f       	add	r25, r17
     aae:	49 81       	ldd	r20, Y+1	; 0x01
     ab0:	e9 2f       	mov	r30, r25
     ab2:	e6 95       	lsr	r30
     ab4:	e6 95       	lsr	r30
     ab6:	e6 95       	lsr	r30
     ab8:	80 e8       	ldi	r24, 0x80	; 128
     aba:	e8 9f       	mul	r30, r24
     abc:	f0 01       	movw	r30, r0
     abe:	11 24       	eor	r1, r1
     ac0:	e4 0f       	add	r30, r20
     ac2:	f1 1d       	adc	r31, r1
     ac4:	e7 59       	subi	r30, 0x97	; 151
     ac6:	fd 4f       	sbci	r31, 0xFD	; 253
     ac8:	97 70       	andi	r25, 0x07	; 7
     aca:	21 e0       	ldi	r18, 0x01	; 1
     acc:	30 e0       	ldi	r19, 0x00	; 0
     ace:	01 c0       	rjmp	.+2      	; 0xad2 <screen_draw_temp+0x9c>
     ad0:	22 0f       	add	r18, r18
     ad2:	9a 95       	dec	r25
     ad4:	ea f7       	brpl	.-6      	; 0xad0 <screen_draw_temp+0x9a>
     ad6:	90 81       	ld	r25, Z
     ad8:	92 2b       	or	r25, r18
     ada:	90 83       	st	Z, r25
     adc:	4e 5f       	subi	r20, 0xFE	; 254
     ade:	49 83       	std	Y+1, r20	; 0x01
     ae0:	8f 2d       	mov	r24, r15
     ae2:	60 2f       	mov	r22, r16
     ae4:	0e 94 35 17 	call	0x2e6a	; 0x2e6a <__udivmodqi4>
     ae8:	09 2f       	mov	r16, r25
     aea:	48 2f       	mov	r20, r24
     aec:	61 2f       	mov	r22, r17
     aee:	ce 01       	movw	r24, r28
     af0:	01 96       	adiw	r24, 0x01	; 1
     af2:	0e 94 75 04 	call	0x8ea	; 0x8ea <screen_draw_numeral>
     af6:	40 2f       	mov	r20, r16
     af8:	61 2f       	mov	r22, r17
     afa:	ce 01       	movw	r24, r28
     afc:	01 96       	adiw	r24, 0x01	; 1
     afe:	0e 94 75 04 	call	0x8ea	; 0x8ea <screen_draw_numeral>
     b02:	0f 90       	pop	r0
     b04:	df 91       	pop	r29
     b06:	cf 91       	pop	r28
     b08:	1f 91       	pop	r17
     b0a:	0f 91       	pop	r16
     b0c:	ff 90       	pop	r15
     b0e:	ef 90       	pop	r14
     b10:	08 95       	ret

00000b12 <eeprom_start>:
     b12:	22 9a       	sbi	0x04, 2	; 4
     b14:	2a 9a       	sbi	0x05, 2	; 5
     b16:	2a 9a       	sbi	0x05, 2	; 5
     b18:	29 9a       	sbi	0x05, 1	; 5
     b1a:	2a 98       	cbi	0x05, 2	; 5
     b1c:	29 98       	cbi	0x05, 1	; 5
     b1e:	22 98       	cbi	0x04, 2	; 4
     b20:	2a 98       	cbi	0x05, 2	; 5
     b22:	2a 9a       	sbi	0x05, 2	; 5
     b24:	08 95       	ret

00000b26 <eeprom_stop>:
     b26:	22 9a       	sbi	0x04, 2	; 4
     b28:	2a 9a       	sbi	0x05, 2	; 5
     b2a:	2a 98       	cbi	0x05, 2	; 5
     b2c:	29 9a       	sbi	0x05, 1	; 5
     b2e:	2a 9a       	sbi	0x05, 2	; 5
     b30:	29 98       	cbi	0x05, 1	; 5
     b32:	22 98       	cbi	0x04, 2	; 4
     b34:	2a 98       	cbi	0x05, 2	; 5
     b36:	2a 9a       	sbi	0x05, 2	; 5
     b38:	08 95       	ret

00000b3a <eeprom_reset>:
     b3a:	0e 94 89 05 	call	0xb12	; 0xb12 <eeprom_start>
     b3e:	22 9a       	sbi	0x04, 2	; 4
     b40:	2a 9a       	sbi	0x05, 2	; 5
     b42:	2a 9a       	sbi	0x05, 2	; 5
     b44:	89 e0       	ldi	r24, 0x09	; 9
     b46:	90 e0       	ldi	r25, 0x00	; 0
     b48:	29 9a       	sbi	0x05, 1	; 5
     b4a:	29 98       	cbi	0x05, 1	; 5
     b4c:	01 97       	sbiw	r24, 0x01	; 1
     b4e:	00 97       	sbiw	r24, 0x00	; 0
     b50:	d9 f7       	brne	.-10     	; 0xb48 <eeprom_reset+0xe>
     b52:	0e 94 89 05 	call	0xb12	; 0xb12 <eeprom_start>
     b56:	0c 94 93 05 	jmp	0xb26	; 0xb26 <eeprom_stop>

00000b5a <eeprom_sendbit>:
     b5a:	22 9a       	sbi	0x04, 2	; 4
     b5c:	2a 9a       	sbi	0x05, 2	; 5
     b5e:	88 23       	and	r24, r24
     b60:	11 f0       	breq	.+4      	; 0xb66 <eeprom_sendbit+0xc>
     b62:	2a 9a       	sbi	0x05, 2	; 5
     b64:	01 c0       	rjmp	.+2      	; 0xb68 <eeprom_sendbit+0xe>
     b66:	2a 98       	cbi	0x05, 2	; 5
     b68:	29 9a       	sbi	0x05, 1	; 5
     b6a:	29 98       	cbi	0x05, 1	; 5
     b6c:	22 98       	cbi	0x04, 2	; 4
     b6e:	2a 98       	cbi	0x05, 2	; 5
     b70:	2a 9a       	sbi	0x05, 2	; 5
     b72:	08 95       	ret

00000b74 <eeprom_receivebit>:
     b74:	22 98       	cbi	0x04, 2	; 4
     b76:	2a 98       	cbi	0x05, 2	; 5
     b78:	2a 9a       	sbi	0x05, 2	; 5
     b7a:	29 9a       	sbi	0x05, 1	; 5
     b7c:	83 b1       	in	r24, 0x03	; 3
     b7e:	29 98       	cbi	0x05, 1	; 5
     b80:	2a 9a       	sbi	0x05, 2	; 5
     b82:	82 fb       	bst	r24, 2
     b84:	88 27       	eor	r24, r24
     b86:	80 f9       	bld	r24, 0
     b88:	08 95       	ret

00000b8a <eeprom_ack>:
     b8a:	22 9a       	sbi	0x04, 2	; 4
     b8c:	2a 9a       	sbi	0x05, 2	; 5
     b8e:	2a 98       	cbi	0x05, 2	; 5
     b90:	29 9a       	sbi	0x05, 1	; 5
     b92:	29 98       	cbi	0x05, 1	; 5
     b94:	2a 9a       	sbi	0x05, 2	; 5
     b96:	22 98       	cbi	0x04, 2	; 4
     b98:	2a 98       	cbi	0x05, 2	; 5
     b9a:	08 95       	ret

00000b9c <eeprom_nack>:
     b9c:	22 9a       	sbi	0x04, 2	; 4
     b9e:	2a 9a       	sbi	0x05, 2	; 5
     ba0:	2a 9a       	sbi	0x05, 2	; 5
     ba2:	29 9a       	sbi	0x05, 1	; 5
     ba4:	29 98       	cbi	0x05, 1	; 5
     ba6:	2a 9a       	sbi	0x05, 2	; 5
     ba8:	22 98       	cbi	0x04, 2	; 4
     baa:	2a 98       	cbi	0x05, 2	; 5
     bac:	08 95       	ret

00000bae <eeprom_sendbyte>:
     bae:	1f 93       	push	r17
     bb0:	cf 93       	push	r28
     bb2:	df 93       	push	r29
     bb4:	18 2f       	mov	r17, r24
     bb6:	c8 e0       	ldi	r28, 0x08	; 8
     bb8:	d0 e0       	ldi	r29, 0x00	; 0
     bba:	81 2f       	mov	r24, r17
     bbc:	80 78       	andi	r24, 0x80	; 128
     bbe:	0e 94 ad 05 	call	0xb5a	; 0xb5a <eeprom_sendbit>
     bc2:	11 0f       	add	r17, r17
     bc4:	21 97       	sbiw	r28, 0x01	; 1
     bc6:	20 97       	sbiw	r28, 0x00	; 0
     bc8:	c1 f7       	brne	.-16     	; 0xbba <eeprom_sendbyte+0xc>
     bca:	df 91       	pop	r29
     bcc:	cf 91       	pop	r28
     bce:	1f 91       	pop	r17
     bd0:	08 95       	ret

00000bd2 <eeprom_receivebyte>:
     bd2:	1f 93       	push	r17
     bd4:	cf 93       	push	r28
     bd6:	df 93       	push	r29
     bd8:	c8 e0       	ldi	r28, 0x08	; 8
     bda:	d0 e0       	ldi	r29, 0x00	; 0
     bdc:	10 e0       	ldi	r17, 0x00	; 0
     bde:	0e 94 ba 05 	call	0xb74	; 0xb74 <eeprom_receivebit>
     be2:	11 0f       	add	r17, r17
     be4:	18 2b       	or	r17, r24
     be6:	21 97       	sbiw	r28, 0x01	; 1
     be8:	20 97       	sbiw	r28, 0x00	; 0
     bea:	c9 f7       	brne	.-14     	; 0xbde <eeprom_receivebyte+0xc>
     bec:	81 2f       	mov	r24, r17
     bee:	df 91       	pop	r29
     bf0:	cf 91       	pop	r28
     bf2:	1f 91       	pop	r17
     bf4:	08 95       	ret

00000bf6 <eeprom_readbyte>:
     bf6:	1f 93       	push	r17
     bf8:	cf 93       	push	r28
     bfa:	df 93       	push	r29
     bfc:	1f 92       	push	r1
     bfe:	cd b7       	in	r28, 0x3d	; 61
     c00:	de b7       	in	r29, 0x3e	; 62
     c02:	18 2f       	mov	r17, r24
     c04:	f8 94       	cli
     c06:	99 83       	std	Y+1, r25	; 0x01
     c08:	0e 94 9d 05 	call	0xb3a	; 0xb3a <eeprom_reset>
     c0c:	0e 94 89 05 	call	0xb12	; 0xb12 <eeprom_start>
     c10:	80 ea       	ldi	r24, 0xA0	; 160
     c12:	0e 94 d7 05 	call	0xbae	; 0xbae <eeprom_sendbyte>
     c16:	0e 94 ba 05 	call	0xb74	; 0xb74 <eeprom_receivebit>
     c1a:	99 81       	ldd	r25, Y+1	; 0x01
     c1c:	89 2f       	mov	r24, r25
     c1e:	0e 94 d7 05 	call	0xbae	; 0xbae <eeprom_sendbyte>
     c22:	0e 94 ba 05 	call	0xb74	; 0xb74 <eeprom_receivebit>
     c26:	81 2f       	mov	r24, r17
     c28:	0e 94 d7 05 	call	0xbae	; 0xbae <eeprom_sendbyte>
     c2c:	0e 94 ba 05 	call	0xb74	; 0xb74 <eeprom_receivebit>
     c30:	0e 94 89 05 	call	0xb12	; 0xb12 <eeprom_start>
     c34:	81 ea       	ldi	r24, 0xA1	; 161
     c36:	0e 94 d7 05 	call	0xbae	; 0xbae <eeprom_sendbyte>
     c3a:	0e 94 ba 05 	call	0xb74	; 0xb74 <eeprom_receivebit>
     c3e:	0e 94 e9 05 	call	0xbd2	; 0xbd2 <eeprom_receivebyte>
     c42:	18 2f       	mov	r17, r24
     c44:	0e 94 ba 05 	call	0xb74	; 0xb74 <eeprom_receivebit>
     c48:	0e 94 ce 05 	call	0xb9c	; 0xb9c <eeprom_nack>
     c4c:	0e 94 93 05 	call	0xb26	; 0xb26 <eeprom_stop>
     c50:	78 94       	sei
     c52:	81 2f       	mov	r24, r17
     c54:	0f 90       	pop	r0
     c56:	df 91       	pop	r29
     c58:	cf 91       	pop	r28
     c5a:	1f 91       	pop	r17
     c5c:	08 95       	ret

00000c5e <eeprom_waituntilready>:
     c5e:	cf 93       	push	r28
     c60:	df 93       	push	r29
     c62:	ca e6       	ldi	r28, 0x6A	; 106
     c64:	d3 e0       	ldi	r29, 0x03	; 3
     c66:	0e 94 89 05 	call	0xb12	; 0xb12 <eeprom_start>
     c6a:	80 ea       	ldi	r24, 0xA0	; 160
     c6c:	0e 94 d7 05 	call	0xbae	; 0xbae <eeprom_sendbyte>
     c70:	df 93       	push	r29
     c72:	cf 93       	push	r28
     c74:	0e 94 e2 18 	call	0x31c4	; 0x31c4 <printf_P>
     c78:	0e 94 ba 05 	call	0xb74	; 0xb74 <eeprom_receivebit>
     c7c:	0f 90       	pop	r0
     c7e:	0f 90       	pop	r0
     c80:	81 11       	cpse	r24, r1
     c82:	f1 cf       	rjmp	.-30     	; 0xc66 <eeprom_waituntilready+0x8>
     c84:	df 91       	pop	r29
     c86:	cf 91       	pop	r28
     c88:	0c 94 9d 05 	jmp	0xb3a	; 0xb3a <eeprom_reset>

00000c8c <eeprom_writepage>:
     c8c:	bf 92       	push	r11
     c8e:	cf 92       	push	r12
     c90:	df 92       	push	r13
     c92:	ef 92       	push	r14
     c94:	ff 92       	push	r15
     c96:	0f 93       	push	r16
     c98:	1f 93       	push	r17
     c9a:	cf 93       	push	r28
     c9c:	df 93       	push	r29
     c9e:	c8 2e       	mov	r12, r24
     ca0:	b6 2e       	mov	r11, r22
     ca2:	17 2f       	mov	r17, r23
     ca4:	f8 94       	cli
     ca6:	0e 94 9d 05 	call	0xb3a	; 0xb3a <eeprom_reset>
     caa:	0e 94 89 05 	call	0xb12	; 0xb12 <eeprom_start>
     cae:	80 ea       	ldi	r24, 0xA0	; 160
     cb0:	0e 94 d7 05 	call	0xbae	; 0xbae <eeprom_sendbyte>
     cb4:	0e 94 ba 05 	call	0xb74	; 0xb74 <eeprom_receivebit>
     cb8:	8c 2d       	mov	r24, r12
     cba:	0e 94 d7 05 	call	0xbae	; 0xbae <eeprom_sendbyte>
     cbe:	0e 94 ba 05 	call	0xb74	; 0xb74 <eeprom_receivebit>
     cc2:	80 e0       	ldi	r24, 0x00	; 0
     cc4:	0e 94 d7 05 	call	0xbae	; 0xbae <eeprom_sendbyte>
     cc8:	0e 94 ba 05 	call	0xb74	; 0xb74 <eeprom_receivebit>
     ccc:	cb 2d       	mov	r28, r11
     cce:	d1 2f       	mov	r29, r17
     cd0:	89 91       	ld	r24, Y+
     cd2:	0e 94 d7 05 	call	0xbae	; 0xbae <eeprom_sendbyte>
     cd6:	0e 94 ba 05 	call	0xb74	; 0xb74 <eeprom_receivebit>
     cda:	bc 12       	cpse	r11, r28
     cdc:	f9 cf       	rjmp	.-14     	; 0xcd0 <eeprom_writepage+0x44>
     cde:	0e 94 93 05 	call	0xb26	; 0xb26 <eeprom_stop>
     ce2:	78 94       	sei
     ce4:	2c e4       	ldi	r18, 0x4C	; 76
     ce6:	33 e0       	ldi	r19, 0x03	; 3
     ce8:	3f 93       	push	r19
     cea:	2f 93       	push	r18
     cec:	0e 94 e2 18 	call	0x31c4	; 0x31c4 <printf_P>
     cf0:	0e 94 2f 06 	call	0xc5e	; 0xc5e <eeprom_waituntilready>
     cf4:	21 e4       	ldi	r18, 0x41	; 65
     cf6:	33 e0       	ldi	r19, 0x03	; 3
     cf8:	3f 93       	push	r19
     cfa:	2f 93       	push	r18
     cfc:	0e 94 e2 18 	call	0x31c4	; 0x31c4 <printf_P>
     d00:	d1 2c       	mov	r13, r1
     d02:	dc 2c       	mov	r13, r12
     d04:	cc 24       	eor	r12, r12
     d06:	0f 90       	pop	r0
     d08:	0f 90       	pop	r0
     d0a:	0f 90       	pop	r0
     d0c:	0f 90       	pop	r0
     d0e:	cb 2d       	mov	r28, r11
     d10:	d1 2f       	mov	r29, r17
     d12:	be eb       	ldi	r27, 0xBE	; 190
     d14:	eb 2e       	mov	r14, r27
     d16:	b1 e0       	ldi	r27, 0x01	; 1
     d18:	fb 2e       	mov	r15, r27
     d1a:	8c 2f       	mov	r24, r28
     d1c:	8b 19       	sub	r24, r11
     d1e:	86 01       	movw	r16, r12
     d20:	08 2b       	or	r16, r24
     d22:	c8 01       	movw	r24, r16
     d24:	0e 94 fb 05 	call	0xbf6	; 0xbf6 <eeprom_readbyte>
     d28:	99 91       	ld	r25, Y+
     d2a:	89 17       	cp	r24, r25
     d2c:	51 f0       	breq	.+20     	; 0xd42 <eeprom_writepage+0xb6>
     d2e:	1f 93       	push	r17
     d30:	0f 93       	push	r16
     d32:	ff 92       	push	r15
     d34:	ef 92       	push	r14
     d36:	0e 94 ce 18 	call	0x319c	; 0x319c <printf>
     d3a:	0f 90       	pop	r0
     d3c:	0f 90       	pop	r0
     d3e:	0f 90       	pop	r0
     d40:	0f 90       	pop	r0
     d42:	bc 12       	cpse	r11, r28
     d44:	ea cf       	rjmp	.-44     	; 0xd1a <eeprom_writepage+0x8e>
     d46:	df 91       	pop	r29
     d48:	cf 91       	pop	r28
     d4a:	1f 91       	pop	r17
     d4c:	0f 91       	pop	r16
     d4e:	ff 90       	pop	r15
     d50:	ef 90       	pop	r14
     d52:	df 90       	pop	r13
     d54:	cf 90       	pop	r12
     d56:	bf 90       	pop	r11
     d58:	08 95       	ret

00000d5a <data_get_live>:
     d5a:	1f 93       	push	r17
     d5c:	cf 93       	push	r28
     d5e:	df 93       	push	r29
     d60:	ec 01       	movw	r28, r24
     d62:	29 2f       	mov	r18, r25
     d64:	33 27       	eor	r19, r19
     d66:	80 91 e3 01 	lds	r24, 0x01E3
     d6a:	90 e0       	ldi	r25, 0x00	; 0
     d6c:	28 17       	cp	r18, r24
     d6e:	39 07       	cpc	r19, r25
     d70:	41 f4       	brne	.+16     	; 0xd82 <data_get_live+0x28>
     d72:	dd 27       	eor	r29, r29
     d74:	c7 59       	subi	r28, 0x97	; 151
     d76:	d9 4f       	sbci	r29, 0xF9	; 249
     d78:	29 81       	ldd	r18, Y+1	; 0x01
     d7a:	88 81       	ld	r24, Y
     d7c:	30 e0       	ldi	r19, 0x00	; 0
     d7e:	38 2b       	or	r19, r24
     d80:	0d c0       	rjmp	.+26     	; 0xd9c <data_get_live+0x42>
     d82:	ce 01       	movw	r24, r28
     d84:	0e 94 fb 05 	call	0xbf6	; 0xbf6 <eeprom_readbyte>
     d88:	18 2f       	mov	r17, r24
     d8a:	ce 01       	movw	r24, r28
     d8c:	01 96       	adiw	r24, 0x01	; 1
     d8e:	0e 94 fb 05 	call	0xbf6	; 0xbf6 <eeprom_readbyte>
     d92:	21 2f       	mov	r18, r17
     d94:	30 e0       	ldi	r19, 0x00	; 0
     d96:	32 2f       	mov	r19, r18
     d98:	22 27       	eor	r18, r18
     d9a:	28 2b       	or	r18, r24
     d9c:	c9 01       	movw	r24, r18
     d9e:	df 91       	pop	r29
     da0:	cf 91       	pop	r28
     da2:	1f 91       	pop	r17
     da4:	08 95       	ret

00000da6 <data_flush_cache>:
     da6:	69 e6       	ldi	r22, 0x69	; 105
     da8:	76 e0       	ldi	r23, 0x06	; 6
     daa:	80 91 e3 01 	lds	r24, 0x01E3
     dae:	0c 94 46 06 	jmp	0xc8c	; 0xc8c <eeprom_writepage>

00000db2 <data_reset_cache>:
     db2:	ea e6       	ldi	r30, 0x6A	; 106
     db4:	f6 e0       	ldi	r31, 0x06	; 6
     db6:	9f e0       	ldi	r25, 0x0F	; 15
     db8:	8f ef       	ldi	r24, 0xFF	; 255
     dba:	df 01       	movw	r26, r30
     dbc:	11 97       	sbiw	r26, 0x01	; 1
     dbe:	9c 93       	st	X, r25
     dc0:	80 83       	st	Z, r24
     dc2:	32 96       	adiw	r30, 0x02	; 2
     dc4:	27 e0       	ldi	r18, 0x07	; 7
     dc6:	ea 36       	cpi	r30, 0x6A	; 106
     dc8:	f2 07       	cpc	r31, r18
     dca:	b9 f7       	brne	.-18     	; 0xdba <data_reset_cache+0x8>
     dcc:	08 95       	ret

00000dce <data_load_page>:
     dce:	bf 92       	push	r11
     dd0:	cf 92       	push	r12
     dd2:	df 92       	push	r13
     dd4:	ef 92       	push	r14
     dd6:	ff 92       	push	r15
     dd8:	0f 93       	push	r16
     dda:	1f 93       	push	r17
     ddc:	cf 93       	push	r28
     dde:	df 93       	push	r29
     de0:	c8 2e       	mov	r12, r24
     de2:	d1 2c       	mov	r13, r1
     de4:	1f 92       	push	r1
     de6:	8f 93       	push	r24
     de8:	83 e3       	ldi	r24, 0x33	; 51
     dea:	93 e0       	ldi	r25, 0x03	; 3
     dec:	9f 93       	push	r25
     dee:	8f 93       	push	r24
     df0:	0e 94 e2 18 	call	0x31c4	; 0x31c4 <printf_P>
     df4:	dc 2c       	mov	r13, r12
     df6:	cc 24       	eor	r12, r12
     df8:	0f 90       	pop	r0
     dfa:	0f 90       	pop	r0
     dfc:	0f 90       	pop	r0
     dfe:	0f 90       	pop	r0
     e00:	b1 2c       	mov	r11, r1
     e02:	0d e2       	ldi	r16, 0x2D	; 45
     e04:	13 e0       	ldi	r17, 0x03	; 3
     e06:	cb e2       	ldi	r28, 0x2B	; 43
     e08:	d3 e0       	ldi	r29, 0x03	; 3
     e0a:	0e 94 9d 05 	call	0xb3a	; 0xb3a <eeprom_reset>
     e0e:	eb 2c       	mov	r14, r11
     e10:	f1 2c       	mov	r15, r1
     e12:	c7 01       	movw	r24, r14
     e14:	8c 29       	or	r24, r12
     e16:	9d 29       	or	r25, r13
     e18:	0e 94 fb 05 	call	0xbf6	; 0xbf6 <eeprom_readbyte>
     e1c:	f7 01       	movw	r30, r14
     e1e:	e7 59       	subi	r30, 0x97	; 151
     e20:	f9 4f       	sbci	r31, 0xF9	; 249
     e22:	80 83       	st	Z, r24
     e24:	1f 92       	push	r1
     e26:	8f 93       	push	r24
     e28:	1f 93       	push	r17
     e2a:	0f 93       	push	r16
     e2c:	0e 94 e2 18 	call	0x31c4	; 0x31c4 <printf_P>
     e30:	b3 94       	inc	r11
     e32:	8b 2d       	mov	r24, r11
     e34:	8f 70       	andi	r24, 0x0F	; 15
     e36:	0f 90       	pop	r0
     e38:	0f 90       	pop	r0
     e3a:	0f 90       	pop	r0
     e3c:	0f 90       	pop	r0
     e3e:	29 f7       	brne	.-54     	; 0xe0a <data_load_page+0x3c>
     e40:	df 93       	push	r29
     e42:	cf 93       	push	r28
     e44:	0e 94 e2 18 	call	0x31c4	; 0x31c4 <printf_P>
     e48:	0f 90       	pop	r0
     e4a:	0f 90       	pop	r0
     e4c:	b1 10       	cpse	r11, r1
     e4e:	dd cf       	rjmp	.-70     	; 0xe0a <data_load_page+0x3c>
     e50:	df 91       	pop	r29
     e52:	cf 91       	pop	r28
     e54:	1f 91       	pop	r17
     e56:	0f 91       	pop	r16
     e58:	ff 90       	pop	r15
     e5a:	ef 90       	pop	r14
     e5c:	df 90       	pop	r13
     e5e:	cf 90       	pop	r12
     e60:	bf 90       	pop	r11
     e62:	08 95       	ret

00000e64 <data_log>:
     e64:	0f 93       	push	r16
     e66:	1f 93       	push	r17
     e68:	cf 93       	push	r28
     e6a:	df 93       	push	r29
     e6c:	00 d0       	rcall	.+0      	; 0xe6e <data_log+0xa>
     e6e:	00 d0       	rcall	.+0      	; 0xe70 <data_log+0xc>
     e70:	cd b7       	in	r28, 0x3d	; 61
     e72:	de b7       	in	r29, 0x3e	; 62
     e74:	18 2f       	mov	r17, r24
     e76:	09 2f       	mov	r16, r25
     e78:	80 91 e2 01 	lds	r24, 0x01E2
     e7c:	1f 92       	push	r1
     e7e:	8f 93       	push	r24
     e80:	80 91 e3 01 	lds	r24, 0x01E3
     e84:	1f 92       	push	r1
     e86:	8f 93       	push	r24
     e88:	25 ef       	ldi	r18, 0xF5	; 245
     e8a:	32 e0       	ldi	r19, 0x02	; 2
     e8c:	3f 93       	push	r19
     e8e:	2f 93       	push	r18
     e90:	4b 83       	std	Y+3, r20	; 0x03
     e92:	5c 83       	std	Y+4, r21	; 0x04
     e94:	69 83       	std	Y+1, r22	; 0x01
     e96:	7a 83       	std	Y+2, r23	; 0x02
     e98:	0e 94 e2 18 	call	0x31c4	; 0x31c4 <printf_P>
     e9c:	90 91 e2 01 	lds	r25, 0x01E2
     ea0:	a9 2f       	mov	r26, r25
     ea2:	b0 e0       	ldi	r27, 0x00	; 0
     ea4:	a7 59       	subi	r26, 0x97	; 151
     ea6:	b9 4f       	sbci	r27, 0xF9	; 249
     ea8:	0c 93       	st	X, r16
     eaa:	a1 e0       	ldi	r26, 0x01	; 1
     eac:	a9 0f       	add	r26, r25
     eae:	b0 e0       	ldi	r27, 0x00	; 0
     eb0:	a7 59       	subi	r26, 0x97	; 151
     eb2:	b9 4f       	sbci	r27, 0xF9	; 249
     eb4:	1c 93       	st	X, r17
     eb6:	a2 e0       	ldi	r26, 0x02	; 2
     eb8:	a9 0f       	add	r26, r25
     eba:	b0 e0       	ldi	r27, 0x00	; 0
     ebc:	a7 59       	subi	r26, 0x97	; 151
     ebe:	b9 4f       	sbci	r27, 0xF9	; 249
     ec0:	7a 81       	ldd	r23, Y+2	; 0x02
     ec2:	7c 93       	st	X, r23
     ec4:	a3 e0       	ldi	r26, 0x03	; 3
     ec6:	a9 0f       	add	r26, r25
     ec8:	b0 e0       	ldi	r27, 0x00	; 0
     eca:	a7 59       	subi	r26, 0x97	; 151
     ecc:	b9 4f       	sbci	r27, 0xF9	; 249
     ece:	69 81       	ldd	r22, Y+1	; 0x01
     ed0:	6c 93       	st	X, r22
     ed2:	a4 e0       	ldi	r26, 0x04	; 4
     ed4:	a9 0f       	add	r26, r25
     ed6:	b0 e0       	ldi	r27, 0x00	; 0
     ed8:	a7 59       	subi	r26, 0x97	; 151
     eda:	b9 4f       	sbci	r27, 0xF9	; 249
     edc:	5c 81       	ldd	r21, Y+4	; 0x04
     ede:	5c 93       	st	X, r21
     ee0:	86 e0       	ldi	r24, 0x06	; 6
     ee2:	89 0f       	add	r24, r25
     ee4:	80 93 e2 01 	sts	0x01E2, r24
     ee8:	e5 e0       	ldi	r30, 0x05	; 5
     eea:	e9 0f       	add	r30, r25
     eec:	f0 e0       	ldi	r31, 0x00	; 0
     eee:	e7 59       	subi	r30, 0x97	; 151
     ef0:	f9 4f       	sbci	r31, 0xF9	; 249
     ef2:	4b 81       	ldd	r20, Y+3	; 0x03
     ef4:	40 83       	st	Z, r20
     ef6:	68 e7       	ldi	r22, 0x78	; 120
     ef8:	0e 94 35 17 	call	0x2e6a	; 0x2e6a <__udivmodqi4>
     efc:	0f 90       	pop	r0
     efe:	0f 90       	pop	r0
     f00:	0f 90       	pop	r0
     f02:	0f 90       	pop	r0
     f04:	0f 90       	pop	r0
     f06:	0f 90       	pop	r0
     f08:	91 11       	cpse	r25, r1
     f0a:	0a c0       	rjmp	.+20     	; 0xf20 <data_log+0xbc>
     f0c:	87 ed       	ldi	r24, 0xD7	; 215
     f0e:	92 e0       	ldi	r25, 0x02	; 2
     f10:	9f 93       	push	r25
     f12:	8f 93       	push	r24
     f14:	0e 94 e2 18 	call	0x31c4	; 0x31c4 <printf_P>
     f18:	0e 94 d3 06 	call	0xda6	; 0xda6 <data_flush_cache>
     f1c:	0f 90       	pop	r0
     f1e:	0f 90       	pop	r0
     f20:	80 91 e2 01 	lds	r24, 0x01E2
     f24:	80 3f       	cpi	r24, 0xF0	; 240
     f26:	f9 f4       	brne	.+62     	; 0xf66 <data_log+0x102>
     f28:	10 92 e2 01 	sts	0x01E2, r1
     f2c:	80 91 e3 01 	lds	r24, 0x01E3
     f30:	8f 5f       	subi	r24, 0xFF	; 255
     f32:	80 93 e3 01 	sts	0x01E3, r24
     f36:	1f 92       	push	r1
     f38:	8f 93       	push	r24
     f3a:	84 e9       	ldi	r24, 0x94	; 148
     f3c:	92 e0       	ldi	r25, 0x02	; 2
     f3e:	9f 93       	push	r25
     f40:	8f 93       	push	r24
     f42:	0e 94 e2 18 	call	0x31c4	; 0x31c4 <printf_P>
     f46:	0e 94 d9 06 	call	0xdb2	; 0xdb2 <data_reset_cache>
     f4a:	0f 90       	pop	r0
     f4c:	0f 90       	pop	r0
     f4e:	0f 90       	pop	r0
     f50:	0f 90       	pop	r0
     f52:	0f 90       	pop	r0
     f54:	0f 90       	pop	r0
     f56:	0f 90       	pop	r0
     f58:	0f 90       	pop	r0
     f5a:	df 91       	pop	r29
     f5c:	cf 91       	pop	r28
     f5e:	1f 91       	pop	r17
     f60:	0f 91       	pop	r16
     f62:	0c 94 d3 06 	jmp	0xda6	; 0xda6 <data_flush_cache>
     f66:	0f 90       	pop	r0
     f68:	0f 90       	pop	r0
     f6a:	0f 90       	pop	r0
     f6c:	0f 90       	pop	r0
     f6e:	df 91       	pop	r29
     f70:	cf 91       	pop	r28
     f72:	1f 91       	pop	r17
     f74:	0f 91       	pop	r16
     f76:	08 95       	ret

00000f78 <i2cSetBitrate>:
     f78:	bc 01       	movw	r22, r24
     f7a:	80 91 b9 00 	lds	r24, 0x00B9
     f7e:	8e 7f       	andi	r24, 0xFE	; 254
     f80:	80 93 b9 00 	sts	0x00B9, r24
     f84:	80 91 b9 00 	lds	r24, 0x00B9
     f88:	8d 7f       	andi	r24, 0xFD	; 253
     f8a:	80 93 b9 00 	sts	0x00B9, r24
     f8e:	80 ed       	ldi	r24, 0xD0	; 208
     f90:	97 e0       	ldi	r25, 0x07	; 7
     f92:	0e 94 4f 17 	call	0x2e9e	; 0x2e9e <__udivmodhi4>
     f96:	86 2f       	mov	r24, r22
     f98:	60 31       	cpi	r22, 0x10	; 16
     f9a:	48 f0       	brcs	.+18     	; 0xfae <i2cSetBitrate+0x36>
     f9c:	77 27       	eor	r23, r23
     f9e:	cb 01       	movw	r24, r22
     fa0:	40 97       	sbiw	r24, 0x10	; 16
     fa2:	97 ff       	sbrs	r25, 7
     fa4:	02 c0       	rjmp	.+4      	; 0xfaa <i2cSetBitrate+0x32>
     fa6:	cb 01       	movw	r24, r22
     fa8:	0f 97       	sbiw	r24, 0x0f	; 15
     faa:	95 95       	asr	r25
     fac:	87 95       	ror	r24
     fae:	80 93 b8 00 	sts	0x00B8, r24
     fb2:	08 95       	ret

00000fb4 <i2cInit>:
     fb4:	88 e2       	ldi	r24, 0x28	; 40
     fb6:	90 e0       	ldi	r25, 0x00	; 0
     fb8:	0e 94 bc 07 	call	0xf78	; 0xf78 <i2cSetBitrate>
     fbc:	ec eb       	ldi	r30, 0xBC	; 188
     fbe:	f0 e0       	ldi	r31, 0x00	; 0
     fc0:	80 81       	ld	r24, Z
     fc2:	84 60       	ori	r24, 0x04	; 4
     fc4:	80 83       	st	Z, r24
     fc6:	08 95       	ret

00000fc8 <i2cSendStart>:
     fc8:	3c 9a       	sbi	0x07, 4	; 7
     fca:	84 ea       	ldi	r24, 0xA4	; 164
     fcc:	80 93 bc 00 	sts	0x00BC, r24
     fd0:	08 95       	ret

00000fd2 <i2cSendStop>:
     fd2:	84 e9       	ldi	r24, 0x94	; 148
     fd4:	80 93 bc 00 	sts	0x00BC, r24
     fd8:	08 95       	ret

00000fda <i2cWaitForComplete>:
     fda:	80 e0       	ldi	r24, 0x00	; 0
     fdc:	90 91 bc 00 	lds	r25, 0x00BC
     fe0:	97 fd       	sbrc	r25, 7
     fe2:	06 c0       	rjmp	.+12     	; 0xff0 <i2cWaitForComplete+0x16>
     fe4:	8f 3f       	cpi	r24, 0xFF	; 255
     fe6:	11 f4       	brne	.+4      	; 0xfec <i2cWaitForComplete+0x12>
     fe8:	3c 98       	cbi	0x07, 4	; 7
     fea:	08 95       	ret
     fec:	8f 5f       	subi	r24, 0xFF	; 255
     fee:	f6 cf       	rjmp	.-20     	; 0xfdc <i2cWaitForComplete+0x2>
     ff0:	3c 98       	cbi	0x07, 4	; 7
     ff2:	80 e0       	ldi	r24, 0x00	; 0
     ff4:	08 95       	ret

00000ff6 <i2cSendByte>:
     ff6:	cf 93       	push	r28
     ff8:	c8 2f       	mov	r28, r24
     ffa:	81 e0       	ldi	r24, 0x01	; 1
     ffc:	90 e0       	ldi	r25, 0x00	; 0
     ffe:	0e 94 6e 02 	call	0x4dc	; 0x4dc <delay_ms>
    1002:	3c 9a       	sbi	0x07, 4	; 7
    1004:	c0 93 bb 00 	sts	0x00BB, r28
    1008:	84 e8       	ldi	r24, 0x84	; 132
    100a:	80 93 bc 00 	sts	0x00BC, r24
    100e:	cf 91       	pop	r28
    1010:	08 95       	ret

00001012 <i2cReceiveByte>:
    1012:	88 23       	and	r24, r24
    1014:	29 f0       	breq	.+10     	; 0x1020 <i2cReceiveByte+0xe>
    1016:	80 91 bc 00 	lds	r24, 0x00BC
    101a:	8f 70       	andi	r24, 0x0F	; 15
    101c:	80 6c       	ori	r24, 0xC0	; 192
    101e:	04 c0       	rjmp	.+8      	; 0x1028 <i2cReceiveByte+0x16>
    1020:	80 91 bc 00 	lds	r24, 0x00BC
    1024:	8f 70       	andi	r24, 0x0F	; 15
    1026:	80 68       	ori	r24, 0x80	; 128
    1028:	80 93 bc 00 	sts	0x00BC, r24
    102c:	08 95       	ret

0000102e <i2cGetReceivedByte>:
    102e:	80 91 bb 00 	lds	r24, 0x00BB
    1032:	08 95       	ret

00001034 <i2cGetStatus>:
    1034:	80 91 b9 00 	lds	r24, 0x00B9
    1038:	08 95       	ret

0000103a <tmp102_configure>:
    103a:	cf 93       	push	r28
    103c:	df 93       	push	r29
    103e:	1f 92       	push	r1
    1040:	cd b7       	in	r28, 0x3d	; 61
    1042:	de b7       	in	r29, 0x3e	; 62
    1044:	89 83       	std	Y+1, r24	; 0x01
    1046:	0e 94 e4 07 	call	0xfc8	; 0xfc8 <i2cSendStart>
    104a:	89 81       	ldd	r24, Y+1	; 0x01
    104c:	0e 94 fb 07 	call	0xff6	; 0xff6 <i2cSendByte>
    1050:	0e 94 ed 07 	call	0xfda	; 0xfda <i2cWaitForComplete>
    1054:	81 11       	cpse	r24, r1
    1056:	1b c0       	rjmp	.+54     	; 0x108e <tmp102_configure+0x54>
    1058:	81 e0       	ldi	r24, 0x01	; 1
    105a:	0e 94 fb 07 	call	0xff6	; 0xff6 <i2cSendByte>
    105e:	0e 94 ed 07 	call	0xfda	; 0xfda <i2cWaitForComplete>
    1062:	81 11       	cpse	r24, r1
    1064:	14 c0       	rjmp	.+40     	; 0x108e <tmp102_configure+0x54>
    1066:	80 e6       	ldi	r24, 0x60	; 96
    1068:	0e 94 fb 07 	call	0xff6	; 0xff6 <i2cSendByte>
    106c:	0e 94 ed 07 	call	0xfda	; 0xfda <i2cWaitForComplete>
    1070:	81 11       	cpse	r24, r1
    1072:	0d c0       	rjmp	.+26     	; 0x108e <tmp102_configure+0x54>
    1074:	80 eb       	ldi	r24, 0xB0	; 176
    1076:	0e 94 fb 07 	call	0xff6	; 0xff6 <i2cSendByte>
    107a:	0e 94 ed 07 	call	0xfda	; 0xfda <i2cWaitForComplete>
    107e:	81 11       	cpse	r24, r1
    1080:	06 c0       	rjmp	.+12     	; 0x108e <tmp102_configure+0x54>
    1082:	84 e9       	ldi	r24, 0x94	; 148
    1084:	80 93 bc 00 	sts	0x00BC, r24
    1088:	80 e0       	ldi	r24, 0x00	; 0
    108a:	90 e0       	ldi	r25, 0x00	; 0
    108c:	02 c0       	rjmp	.+4      	; 0x1092 <tmp102_configure+0x58>
    108e:	8f ef       	ldi	r24, 0xFF	; 255
    1090:	9f e0       	ldi	r25, 0x0F	; 15
    1092:	0f 90       	pop	r0
    1094:	df 91       	pop	r29
    1096:	cf 91       	pop	r28
    1098:	08 95       	ret

0000109a <tmp102_readraw>:
    109a:	1f 93       	push	r17
    109c:	cf 93       	push	r28
    109e:	df 93       	push	r29
    10a0:	c8 2f       	mov	r28, r24
    10a2:	0e 94 e4 07 	call	0xfc8	; 0xfc8 <i2cSendStart>
    10a6:	0e 94 ed 07 	call	0xfda	; 0xfda <i2cWaitForComplete>
    10aa:	81 11       	cpse	r24, r1
    10ac:	27 c0       	rjmp	.+78     	; 0x10fc <tmp102_readraw+0x62>
    10ae:	8c 2f       	mov	r24, r28
    10b0:	0e 94 fb 07 	call	0xff6	; 0xff6 <i2cSendByte>
    10b4:	0e 94 ed 07 	call	0xfda	; 0xfda <i2cWaitForComplete>
    10b8:	81 11       	cpse	r24, r1
    10ba:	20 c0       	rjmp	.+64     	; 0x10fc <tmp102_readraw+0x62>
    10bc:	0e 94 fb 07 	call	0xff6	; 0xff6 <i2cSendByte>
    10c0:	0e 94 ed 07 	call	0xfda	; 0xfda <i2cWaitForComplete>
    10c4:	81 11       	cpse	r24, r1
    10c6:	1a c0       	rjmp	.+52     	; 0x10fc <tmp102_readraw+0x62>
    10c8:	0e 94 e4 07 	call	0xfc8	; 0xfc8 <i2cSendStart>
    10cc:	8c 2f       	mov	r24, r28
    10ce:	81 60       	ori	r24, 0x01	; 1
    10d0:	0e 94 fb 07 	call	0xff6	; 0xff6 <i2cSendByte>
    10d4:	0e 94 ed 07 	call	0xfda	; 0xfda <i2cWaitForComplete>
    10d8:	81 11       	cpse	r24, r1
    10da:	10 c0       	rjmp	.+32     	; 0x10fc <tmp102_readraw+0x62>
    10dc:	80 91 bc 00 	lds	r24, 0x00BC
    10e0:	8f 70       	andi	r24, 0x0F	; 15
    10e2:	80 6c       	ori	r24, 0xC0	; 192
    10e4:	80 93 bc 00 	sts	0x00BC, r24
    10e8:	0e 94 ed 07 	call	0xfda	; 0xfda <i2cWaitForComplete>
    10ec:	81 11       	cpse	r24, r1
    10ee:	06 c0       	rjmp	.+12     	; 0x10fc <tmp102_readraw+0x62>
    10f0:	10 91 bb 00 	lds	r17, 0x00BB
    10f4:	0e 94 ed 07 	call	0xfda	; 0xfda <i2cWaitForComplete>
    10f8:	88 23       	and	r24, r24
    10fa:	19 f0       	breq	.+6      	; 0x1102 <tmp102_readraw+0x68>
    10fc:	8f ef       	ldi	r24, 0xFF	; 255
    10fe:	9f e0       	ldi	r25, 0x0F	; 15
    1100:	1f c0       	rjmp	.+62     	; 0x1140 <tmp102_readraw+0xa6>
    1102:	80 e0       	ldi	r24, 0x00	; 0
    1104:	0e 94 09 08 	call	0x1012	; 0x1012 <i2cReceiveByte>
    1108:	0e 94 ed 07 	call	0xfda	; 0xfda <i2cWaitForComplete>
    110c:	81 11       	cpse	r24, r1
    110e:	f6 cf       	rjmp	.-20     	; 0x10fc <tmp102_readraw+0x62>
    1110:	c0 91 bb 00 	lds	r28, 0x00BB
    1114:	d0 e0       	ldi	r29, 0x00	; 0
    1116:	0e 94 ed 07 	call	0xfda	; 0xfda <i2cWaitForComplete>
    111a:	81 11       	cpse	r24, r1
    111c:	ef cf       	rjmp	.-34     	; 0x10fc <tmp102_readraw+0x62>
    111e:	84 e9       	ldi	r24, 0x94	; 148
    1120:	80 93 bc 00 	sts	0x00BC, r24
    1124:	ce 01       	movw	r24, r28
    1126:	33 e0       	ldi	r19, 0x03	; 3
    1128:	96 95       	lsr	r25
    112a:	87 95       	ror	r24
    112c:	3a 95       	dec	r19
    112e:	e1 f7       	brne	.-8      	; 0x1128 <tmp102_readraw+0x8e>
    1130:	40 e2       	ldi	r20, 0x20	; 32
    1132:	14 9f       	mul	r17, r20
    1134:	90 01       	movw	r18, r0
    1136:	11 24       	eor	r1, r1
    1138:	82 2b       	or	r24, r18
    113a:	93 2b       	or	r25, r19
    113c:	94 fd       	sbrc	r25, 4
    113e:	90 6f       	ori	r25, 0xF0	; 240
    1140:	df 91       	pop	r29
    1142:	cf 91       	pop	r28
    1144:	1f 91       	pop	r17
    1146:	08 95       	ret

00001148 <display_draw_graph>:
    1148:	cf 92       	push	r12
    114a:	df 92       	push	r13
    114c:	ef 92       	push	r14
    114e:	ff 92       	push	r15
    1150:	0f 93       	push	r16
    1152:	1f 93       	push	r17
    1154:	cf 93       	push	r28
    1156:	df 93       	push	r29
    1158:	80 91 de 01 	lds	r24, 0x01DE
    115c:	81 11       	cpse	r24, r1
    115e:	39 c0       	rjmp	.+114    	; 0x11d2 <display_draw_graph+0x8a>
    1160:	ce e7       	ldi	r28, 0x7E	; 126
    1162:	d0 e0       	ldi	r29, 0x00	; 0
    1164:	ee 24       	eor	r14, r14
    1166:	e3 94       	inc	r14
    1168:	f1 2c       	mov	r15, r1
    116a:	1c e0       	ldi	r17, 0x0C	; 12
    116c:	d1 2e       	mov	r13, r17
    116e:	1c 2f       	mov	r17, r28
    1170:	c0 ff       	sbrs	r28, 0
    1172:	19 c0       	rjmp	.+50     	; 0x11a6 <display_draw_graph+0x5e>
    1174:	20 91 21 01 	lds	r18, 0x0121
    1178:	82 2f       	mov	r24, r18
    117a:	86 95       	lsr	r24
    117c:	86 95       	lsr	r24
    117e:	86 95       	lsr	r24
    1180:	fe 01       	movw	r30, r28
    1182:	90 e8       	ldi	r25, 0x80	; 128
    1184:	89 9f       	mul	r24, r25
    1186:	e0 0d       	add	r30, r0
    1188:	f1 1d       	adc	r31, r1
    118a:	11 24       	eor	r1, r1
    118c:	e7 59       	subi	r30, 0x97	; 151
    118e:	fd 4f       	sbci	r31, 0xFD	; 253
    1190:	27 70       	andi	r18, 0x07	; 7
    1192:	c7 01       	movw	r24, r14
    1194:	02 c0       	rjmp	.+4      	; 0x119a <display_draw_graph+0x52>
    1196:	88 0f       	add	r24, r24
    1198:	99 1f       	adc	r25, r25
    119a:	2a 95       	dec	r18
    119c:	e2 f7       	brpl	.-8      	; 0x1196 <display_draw_graph+0x4e>
    119e:	9c 01       	movw	r18, r24
    11a0:	80 81       	ld	r24, Z
    11a2:	82 2b       	or	r24, r18
    11a4:	80 83       	st	Z, r24
    11a6:	81 2f       	mov	r24, r17
    11a8:	6d 2d       	mov	r22, r13
    11aa:	0e 94 35 17 	call	0x2e6a	; 0x2e6a <__udivmodqi4>
    11ae:	97 30       	cpi	r25, 0x07	; 7
    11b0:	59 f4       	brne	.+22     	; 0x11c8 <display_draw_graph+0x80>
    11b2:	80 91 21 01 	lds	r24, 0x0121
    11b6:	21 e0       	ldi	r18, 0x01	; 1
    11b8:	28 0f       	add	r18, r24
    11ba:	6f ef       	ldi	r22, 0xFF	; 255
    11bc:	68 0f       	add	r22, r24
    11be:	01 e0       	ldi	r16, 0x01	; 1
    11c0:	41 2f       	mov	r20, r17
    11c2:	81 2f       	mov	r24, r17
    11c4:	0e 94 5e 03 	call	0x6bc	; 0x6bc <screen_draw_rect>
    11c8:	21 97       	sbiw	r28, 0x01	; 1
    11ca:	ca 32       	cpi	r28, 0x2A	; 42
    11cc:	d1 05       	cpc	r29, r1
    11ce:	79 f6       	brne	.-98     	; 0x116e <display_draw_graph+0x26>
    11d0:	b2 c0       	rjmp	.+356    	; 0x1336 <display_draw_graph+0x1ee>
    11d2:	81 30       	cpi	r24, 0x01	; 1
    11d4:	a1 f5       	brne	.+104    	; 0x123e <display_draw_graph+0xf6>
    11d6:	ce e7       	ldi	r28, 0x7E	; 126
    11d8:	d0 e0       	ldi	r29, 0x00	; 0
    11da:	ee 24       	eor	r14, r14
    11dc:	e3 94       	inc	r14
    11de:	f1 2c       	mov	r15, r1
    11e0:	1c 2f       	mov	r17, r28
    11e2:	c0 ff       	sbrs	r28, 0
    11e4:	19 c0       	rjmp	.+50     	; 0x1218 <display_draw_graph+0xd0>
    11e6:	20 91 21 01 	lds	r18, 0x0121
    11ea:	82 2f       	mov	r24, r18
    11ec:	86 95       	lsr	r24
    11ee:	86 95       	lsr	r24
    11f0:	86 95       	lsr	r24
    11f2:	fe 01       	movw	r30, r28
    11f4:	90 e8       	ldi	r25, 0x80	; 128
    11f6:	89 9f       	mul	r24, r25
    11f8:	e0 0d       	add	r30, r0
    11fa:	f1 1d       	adc	r31, r1
    11fc:	11 24       	eor	r1, r1
    11fe:	e7 59       	subi	r30, 0x97	; 151
    1200:	fd 4f       	sbci	r31, 0xFD	; 253
    1202:	27 70       	andi	r18, 0x07	; 7
    1204:	c7 01       	movw	r24, r14
    1206:	02 c0       	rjmp	.+4      	; 0x120c <display_draw_graph+0xc4>
    1208:	88 0f       	add	r24, r24
    120a:	99 1f       	adc	r25, r25
    120c:	2a 95       	dec	r18
    120e:	e2 f7       	brpl	.-8      	; 0x1208 <display_draw_graph+0xc0>
    1210:	9c 01       	movw	r18, r24
    1212:	80 81       	ld	r24, Z
    1214:	82 2b       	or	r24, r18
    1216:	80 83       	st	Z, r24
    1218:	81 2f       	mov	r24, r17
    121a:	83 70       	andi	r24, 0x03	; 3
    121c:	83 30       	cpi	r24, 0x03	; 3
    121e:	51 f4       	brne	.+20     	; 0x1234 <display_draw_graph+0xec>
    1220:	60 91 21 01 	lds	r22, 0x0121
    1224:	21 e0       	ldi	r18, 0x01	; 1
    1226:	26 0f       	add	r18, r22
    1228:	61 50       	subi	r22, 0x01	; 1
    122a:	01 e0       	ldi	r16, 0x01	; 1
    122c:	41 2f       	mov	r20, r17
    122e:	81 2f       	mov	r24, r17
    1230:	0e 94 5e 03 	call	0x6bc	; 0x6bc <screen_draw_rect>
    1234:	21 97       	sbiw	r28, 0x01	; 1
    1236:	ce 31       	cpi	r28, 0x1E	; 30
    1238:	d1 05       	cpc	r29, r1
    123a:	91 f6       	brne	.-92     	; 0x11e0 <display_draw_graph+0x98>
    123c:	7c c0       	rjmp	.+248    	; 0x1336 <display_draw_graph+0x1ee>
    123e:	82 30       	cpi	r24, 0x02	; 2
    1240:	09 f0       	breq	.+2      	; 0x1244 <display_draw_graph+0xfc>
    1242:	3f c0       	rjmp	.+126    	; 0x12c2 <display_draw_graph+0x17a>
    1244:	ce e7       	ldi	r28, 0x7E	; 126
    1246:	d0 e0       	ldi	r29, 0x00	; 0
    1248:	75 e0       	ldi	r23, 0x05	; 5
    124a:	d7 2e       	mov	r13, r23
    124c:	ee 24       	eor	r14, r14
    124e:	e3 94       	inc	r14
    1250:	f1 2c       	mov	r15, r1
    1252:	ff e0       	ldi	r31, 0x0F	; 15
    1254:	cf 2e       	mov	r12, r31
    1256:	1c 2f       	mov	r17, r28
    1258:	8c 2f       	mov	r24, r28
    125a:	6d 2d       	mov	r22, r13
    125c:	0e 94 35 17 	call	0x2e6a	; 0x2e6a <__udivmodqi4>
    1260:	92 30       	cpi	r25, 0x02	; 2
    1262:	c9 f4       	brne	.+50     	; 0x1296 <display_draw_graph+0x14e>
    1264:	20 91 21 01 	lds	r18, 0x0121
    1268:	82 2f       	mov	r24, r18
    126a:	86 95       	lsr	r24
    126c:	86 95       	lsr	r24
    126e:	86 95       	lsr	r24
    1270:	fe 01       	movw	r30, r28
    1272:	90 e8       	ldi	r25, 0x80	; 128
    1274:	89 9f       	mul	r24, r25
    1276:	e0 0d       	add	r30, r0
    1278:	f1 1d       	adc	r31, r1
    127a:	11 24       	eor	r1, r1
    127c:	e7 59       	subi	r30, 0x97	; 151
    127e:	fd 4f       	sbci	r31, 0xFD	; 253
    1280:	27 70       	andi	r18, 0x07	; 7
    1282:	c7 01       	movw	r24, r14
    1284:	02 c0       	rjmp	.+4      	; 0x128a <display_draw_graph+0x142>
    1286:	88 0f       	add	r24, r24
    1288:	99 1f       	adc	r25, r25
    128a:	2a 95       	dec	r18
    128c:	e2 f7       	brpl	.-8      	; 0x1286 <display_draw_graph+0x13e>
    128e:	9c 01       	movw	r18, r24
    1290:	80 81       	ld	r24, Z
    1292:	82 2b       	or	r24, r18
    1294:	80 83       	st	Z, r24
    1296:	81 2f       	mov	r24, r17
    1298:	6c 2d       	mov	r22, r12
    129a:	0e 94 35 17 	call	0x2e6a	; 0x2e6a <__udivmodqi4>
    129e:	97 30       	cpi	r25, 0x07	; 7
    12a0:	59 f4       	brne	.+22     	; 0x12b8 <display_draw_graph+0x170>
    12a2:	80 91 21 01 	lds	r24, 0x0121
    12a6:	21 e0       	ldi	r18, 0x01	; 1
    12a8:	28 0f       	add	r18, r24
    12aa:	6f ef       	ldi	r22, 0xFF	; 255
    12ac:	68 0f       	add	r22, r24
    12ae:	01 e0       	ldi	r16, 0x01	; 1
    12b0:	41 2f       	mov	r20, r17
    12b2:	81 2f       	mov	r24, r17
    12b4:	0e 94 5e 03 	call	0x6bc	; 0x6bc <screen_draw_rect>
    12b8:	21 97       	sbiw	r28, 0x01	; 1
    12ba:	c4 32       	cpi	r28, 0x24	; 36
    12bc:	d1 05       	cpc	r29, r1
    12be:	59 f6       	brne	.-106    	; 0x1256 <display_draw_graph+0x10e>
    12c0:	3a c0       	rjmp	.+116    	; 0x1336 <display_draw_graph+0x1ee>
    12c2:	83 30       	cpi	r24, 0x03	; 3
    12c4:	d1 f5       	brne	.+116    	; 0x133a <display_draw_graph+0x1f2>
    12c6:	ce e7       	ldi	r28, 0x7E	; 126
    12c8:	d0 e0       	ldi	r29, 0x00	; 0
    12ca:	ee 24       	eor	r14, r14
    12cc:	e3 94       	inc	r14
    12ce:	f1 2c       	mov	r15, r1
    12d0:	6a e0       	ldi	r22, 0x0A	; 10
    12d2:	d6 2e       	mov	r13, r22
    12d4:	1c 2f       	mov	r17, r28
    12d6:	c0 ff       	sbrs	r28, 0
    12d8:	19 c0       	rjmp	.+50     	; 0x130c <display_draw_graph+0x1c4>
    12da:	20 91 21 01 	lds	r18, 0x0121
    12de:	82 2f       	mov	r24, r18
    12e0:	86 95       	lsr	r24
    12e2:	86 95       	lsr	r24
    12e4:	86 95       	lsr	r24
    12e6:	fe 01       	movw	r30, r28
    12e8:	90 e8       	ldi	r25, 0x80	; 128
    12ea:	89 9f       	mul	r24, r25
    12ec:	e0 0d       	add	r30, r0
    12ee:	f1 1d       	adc	r31, r1
    12f0:	11 24       	eor	r1, r1
    12f2:	e7 59       	subi	r30, 0x97	; 151
    12f4:	fd 4f       	sbci	r31, 0xFD	; 253
    12f6:	27 70       	andi	r18, 0x07	; 7
    12f8:	c7 01       	movw	r24, r14
    12fa:	02 c0       	rjmp	.+4      	; 0x1300 <display_draw_graph+0x1b8>
    12fc:	88 0f       	add	r24, r24
    12fe:	99 1f       	adc	r25, r25
    1300:	2a 95       	dec	r18
    1302:	e2 f7       	brpl	.-8      	; 0x12fc <display_draw_graph+0x1b4>
    1304:	9c 01       	movw	r18, r24
    1306:	80 81       	ld	r24, Z
    1308:	82 2b       	or	r24, r18
    130a:	80 83       	st	Z, r24
    130c:	81 2f       	mov	r24, r17
    130e:	6d 2d       	mov	r22, r13
    1310:	0e 94 35 17 	call	0x2e6a	; 0x2e6a <__udivmodqi4>
    1314:	97 30       	cpi	r25, 0x07	; 7
    1316:	59 f4       	brne	.+22     	; 0x132e <display_draw_graph+0x1e6>
    1318:	80 91 21 01 	lds	r24, 0x0121
    131c:	21 e0       	ldi	r18, 0x01	; 1
    131e:	28 0f       	add	r18, r24
    1320:	6f ef       	ldi	r22, 0xFF	; 255
    1322:	68 0f       	add	r22, r24
    1324:	01 e0       	ldi	r16, 0x01	; 1
    1326:	41 2f       	mov	r20, r17
    1328:	81 2f       	mov	r24, r17
    132a:	0e 94 5e 03 	call	0x6bc	; 0x6bc <screen_draw_rect>
    132e:	21 97       	sbiw	r28, 0x01	; 1
    1330:	c2 34       	cpi	r28, 0x42	; 66
    1332:	d1 05       	cpc	r29, r1
    1334:	79 f6       	brne	.-98     	; 0x12d4 <display_draw_graph+0x18c>
    1336:	10 93 e1 01 	sts	0x01E1, r17
    133a:	10 91 21 01 	lds	r17, 0x0121
    133e:	1f 53       	subi	r17, 0x3F	; 63
    1340:	c1 e0       	ldi	r28, 0x01	; 1
    1342:	d0 e0       	ldi	r29, 0x00	; 0
    1344:	4a e0       	ldi	r20, 0x0A	; 10
    1346:	f4 2e       	mov	r15, r20
    1348:	20 91 21 01 	lds	r18, 0x0121
    134c:	42 2f       	mov	r20, r18
    134e:	50 e0       	ldi	r21, 0x00	; 0
    1350:	41 1b       	sub	r20, r17
    1352:	51 09       	sbc	r21, r1
    1354:	17 fd       	sbrc	r17, 7
    1356:	53 95       	inc	r21
    1358:	14 16       	cp	r1, r20
    135a:	15 06       	cpc	r1, r21
    135c:	8c f5       	brge	.+98     	; 0x13c0 <display_draw_graph+0x278>
    135e:	1f 5f       	subi	r17, 0xFF	; 255
    1360:	10 fd       	sbrc	r17, 0
    1362:	1b c0       	rjmp	.+54     	; 0x139a <display_draw_graph+0x252>
    1364:	42 2f       	mov	r20, r18
    1366:	41 1b       	sub	r20, r17
    1368:	e4 2f       	mov	r30, r20
    136a:	e6 95       	lsr	r30
    136c:	e6 95       	lsr	r30
    136e:	e6 95       	lsr	r30
    1370:	80 91 e1 01 	lds	r24, 0x01E1
    1374:	90 e8       	ldi	r25, 0x80	; 128
    1376:	e9 9f       	mul	r30, r25
    1378:	f0 01       	movw	r30, r0
    137a:	11 24       	eor	r1, r1
    137c:	e8 0f       	add	r30, r24
    137e:	f1 1d       	adc	r31, r1
    1380:	e7 59       	subi	r30, 0x97	; 151
    1382:	fd 4f       	sbci	r31, 0xFD	; 253
    1384:	47 70       	andi	r20, 0x07	; 7
    1386:	ce 01       	movw	r24, r28
    1388:	02 c0       	rjmp	.+4      	; 0x138e <display_draw_graph+0x246>
    138a:	88 0f       	add	r24, r24
    138c:	99 1f       	adc	r25, r25
    138e:	4a 95       	dec	r20
    1390:	e2 f7       	brpl	.-8      	; 0x138a <display_draw_graph+0x242>
    1392:	ac 01       	movw	r20, r24
    1394:	80 81       	ld	r24, Z
    1396:	84 2b       	or	r24, r20
    1398:	80 83       	st	Z, r24
    139a:	81 2f       	mov	r24, r17
    139c:	6f 2d       	mov	r22, r15
    139e:	0e 94 41 17 	call	0x2e82	; 0x2e82 <__divmodqi4>
    13a2:	91 11       	cpse	r25, r1
    13a4:	d1 cf       	rjmp	.-94     	; 0x1348 <display_draw_graph+0x200>
    13a6:	11 23       	and	r17, r17
    13a8:	79 f2       	breq	.-98     	; 0x1348 <display_draw_graph+0x200>
    13aa:	80 91 e1 01 	lds	r24, 0x01E1
    13ae:	62 2f       	mov	r22, r18
    13b0:	61 1b       	sub	r22, r17
    13b2:	41 e0       	ldi	r20, 0x01	; 1
    13b4:	48 0f       	add	r20, r24
    13b6:	01 e0       	ldi	r16, 0x01	; 1
    13b8:	26 2f       	mov	r18, r22
    13ba:	0e 94 5e 03 	call	0x6bc	; 0x6bc <screen_draw_rect>
    13be:	c4 cf       	rjmp	.-120    	; 0x1348 <display_draw_graph+0x200>
    13c0:	df 91       	pop	r29
    13c2:	cf 91       	pop	r28
    13c4:	1f 91       	pop	r17
    13c6:	0f 91       	pop	r16
    13c8:	ff 90       	pop	r15
    13ca:	ef 90       	pop	r14
    13cc:	df 90       	pop	r13
    13ce:	cf 90       	pop	r12
    13d0:	08 95       	ret

000013d2 <display_draw_data>:
    13d2:	bf 92       	push	r11
    13d4:	cf 92       	push	r12
    13d6:	df 92       	push	r13
    13d8:	ef 92       	push	r14
    13da:	ff 92       	push	r15
    13dc:	0f 93       	push	r16
    13de:	1f 93       	push	r17
    13e0:	cf 93       	push	r28
    13e2:	df 93       	push	r29
    13e4:	c0 91 e3 01 	lds	r28, 0x01E3
    13e8:	d0 e0       	ldi	r29, 0x00	; 0
    13ea:	dc 2f       	mov	r29, r28
    13ec:	cc 27       	eor	r28, r28
    13ee:	90 91 e2 01 	lds	r25, 0x01E2
    13f2:	c9 2b       	or	r28, r25
    13f4:	90 91 de 01 	lds	r25, 0x01DE
    13f8:	99 23       	and	r25, r25
    13fa:	f9 f0       	breq	.+62     	; 0x143a <display_draw_data+0x68>
    13fc:	92 30       	cpi	r25, 0x02	; 2
    13fe:	21 f0       	breq	.+8      	; 0x1408 <display_draw_data+0x36>
    1400:	91 30       	cpi	r25, 0x01	; 1
    1402:	21 f0       	breq	.+8      	; 0x140c <display_draw_data+0x3a>
    1404:	91 e0       	ldi	r25, 0x01	; 1
    1406:	03 c0       	rjmp	.+6      	; 0x140e <display_draw_data+0x3c>
    1408:	94 e0       	ldi	r25, 0x04	; 4
    140a:	01 c0       	rjmp	.+2      	; 0x140e <display_draw_data+0x3c>
    140c:	9f e0       	ldi	r25, 0x0F	; 15
    140e:	20 91 df 01 	lds	r18, 0x01DF
    1412:	30 91 e0 01 	lds	r19, 0x01E0
    1416:	31 95       	neg	r19
    1418:	21 95       	neg	r18
    141a:	31 09       	sbc	r19, r1
    141c:	21 15       	cp	r18, r1
    141e:	31 05       	cpc	r19, r1
    1420:	69 f0       	breq	.+26     	; 0x143c <display_draw_data+0x6a>
    1422:	ae 01       	movw	r20, r28
    1424:	46 50       	subi	r20, 0x06	; 6
    1426:	51 09       	sbc	r21, r1
    1428:	4a 3f       	cpi	r20, 0xFA	; 250
    142a:	19 f4       	brne	.+6      	; 0x1432 <display_draw_data+0x60>
    142c:	ae 01       	movw	r20, r28
    142e:	46 51       	subi	r20, 0x16	; 22
    1430:	51 09       	sbc	r21, r1
    1432:	21 50       	subi	r18, 0x01	; 1
    1434:	31 09       	sbc	r19, r1
    1436:	ea 01       	movw	r28, r20
    1438:	f1 cf       	rjmp	.-30     	; 0x141c <display_draw_data+0x4a>
    143a:	98 e7       	ldi	r25, 0x78	; 120
    143c:	0f e7       	ldi	r16, 0x7F	; 127
    143e:	b0 2e       	mov	r11, r16
    1440:	08 2f       	mov	r16, r24
    1442:	10 e0       	ldi	r17, 0x00	; 0
    1444:	ee 24       	eor	r14, r14
    1446:	e3 94       	inc	r14
    1448:	f1 2c       	mov	r15, r1
    144a:	c9 2e       	mov	r12, r25
    144c:	d1 2c       	mov	r13, r1
    144e:	80 91 e1 01 	lds	r24, 0x01E1
    1452:	8b 15       	cp	r24, r11
    1454:	08 f0       	brcs	.+2      	; 0x1458 <display_draw_data+0x86>
    1456:	4a c0       	rjmp	.+148    	; 0x14ec <display_draw_data+0x11a>
    1458:	ce 01       	movw	r24, r28
    145a:	80 0f       	add	r24, r16
    145c:	91 1f       	adc	r25, r17
    145e:	0e 94 ad 06 	call	0xd5a	; 0xd5a <data_get_live>
    1462:	8f 3f       	cpi	r24, 0xFF	; 255
    1464:	2f e0       	ldi	r18, 0x0F	; 15
    1466:	92 07       	cpc	r25, r18
    1468:	89 f1       	breq	.+98     	; 0x14cc <display_draw_data+0xfa>
    146a:	bc 01       	movw	r22, r24
    146c:	80 e0       	ldi	r24, 0x00	; 0
    146e:	90 e0       	ldi	r25, 0x00	; 0
    1470:	0e 94 44 16 	call	0x2c88	; 0x2c88 <__floatunsisf>
    1474:	20 e0       	ldi	r18, 0x00	; 0
    1476:	30 e0       	ldi	r19, 0x00	; 0
    1478:	40 e8       	ldi	r20, 0x80	; 128
    147a:	5d e3       	ldi	r21, 0x3D	; 61
    147c:	0e 94 aa 16 	call	0x2d54	; 0x2d54 <__mulsf3>
    1480:	0e 94 13 16 	call	0x2c26	; 0x2c26 <__fixsfsi>
    1484:	20 91 21 01 	lds	r18, 0x0121
    1488:	82 2f       	mov	r24, r18
    148a:	90 e0       	ldi	r25, 0x00	; 0
    148c:	86 1b       	sub	r24, r22
    148e:	91 09       	sbc	r25, r1
    1490:	67 fd       	sbrc	r22, 7
    1492:	93 95       	inc	r25
    1494:	01 97       	sbiw	r24, 0x01	; 1
    1496:	ce 97       	sbiw	r24, 0x3e	; 62
    1498:	c8 f4       	brcc	.+50     	; 0x14cc <display_draw_data+0xfa>
    149a:	82 2f       	mov	r24, r18
    149c:	86 1b       	sub	r24, r22
    149e:	e8 2f       	mov	r30, r24
    14a0:	e6 95       	lsr	r30
    14a2:	e6 95       	lsr	r30
    14a4:	e6 95       	lsr	r30
    14a6:	30 e8       	ldi	r19, 0x80	; 128
    14a8:	e3 9f       	mul	r30, r19
    14aa:	f0 01       	movw	r30, r0
    14ac:	11 24       	eor	r1, r1
    14ae:	eb 0d       	add	r30, r11
    14b0:	f1 1d       	adc	r31, r1
    14b2:	e7 59       	subi	r30, 0x97	; 151
    14b4:	fd 4f       	sbci	r31, 0xFD	; 253
    14b6:	87 70       	andi	r24, 0x07	; 7
    14b8:	97 01       	movw	r18, r14
    14ba:	02 c0       	rjmp	.+4      	; 0x14c0 <display_draw_data+0xee>
    14bc:	22 0f       	add	r18, r18
    14be:	33 1f       	adc	r19, r19
    14c0:	8a 95       	dec	r24
    14c2:	e2 f7       	brpl	.-8      	; 0x14bc <display_draw_data+0xea>
    14c4:	c9 01       	movw	r24, r18
    14c6:	90 81       	ld	r25, Z
    14c8:	98 2b       	or	r25, r24
    14ca:	90 83       	st	Z, r25
    14cc:	ba 94       	dec	r11
    14ce:	9e 01       	movw	r18, r28
    14d0:	80 e0       	ldi	r24, 0x00	; 0
    14d2:	90 e0       	ldi	r25, 0x00	; 0
    14d4:	26 97       	sbiw	r28, 0x06	; 6
    14d6:	ca 3f       	cpi	r28, 0xFA	; 250
    14d8:	11 f4       	brne	.+4      	; 0x14de <display_draw_data+0x10c>
    14da:	e9 01       	movw	r28, r18
    14dc:	66 97       	sbiw	r28, 0x16	; 22
    14de:	01 96       	adiw	r24, 0x01	; 1
    14e0:	c8 16       	cp	r12, r24
    14e2:	d9 06       	cpc	r13, r25
    14e4:	09 f4       	brne	.+2      	; 0x14e8 <display_draw_data+0x116>
    14e6:	b3 cf       	rjmp	.-154    	; 0x144e <display_draw_data+0x7c>
    14e8:	9e 01       	movw	r18, r28
    14ea:	f4 cf       	rjmp	.-24     	; 0x14d4 <display_draw_data+0x102>
    14ec:	df 91       	pop	r29
    14ee:	cf 91       	pop	r28
    14f0:	1f 91       	pop	r17
    14f2:	0f 91       	pop	r16
    14f4:	ff 90       	pop	r15
    14f6:	ef 90       	pop	r14
    14f8:	df 90       	pop	r13
    14fa:	cf 90       	pop	r12
    14fc:	bf 90       	pop	r11
    14fe:	08 95       	ret

00001500 <display_draw_time_segment>:
    1500:	ff 92       	push	r15
    1502:	0f 93       	push	r16
    1504:	1f 93       	push	r17
    1506:	cf 93       	push	r28
    1508:	df 93       	push	r29
    150a:	ec 01       	movw	r28, r24
    150c:	16 2f       	mov	r17, r22
    150e:	f4 2e       	mov	r15, r20
    1510:	84 2f       	mov	r24, r20
    1512:	64 e6       	ldi	r22, 0x64	; 100
    1514:	0e 94 35 17 	call	0x2e6a	; 0x2e6a <__udivmodqi4>
    1518:	89 2f       	mov	r24, r25
    151a:	0a e0       	ldi	r16, 0x0A	; 10
    151c:	60 2f       	mov	r22, r16
    151e:	0e 94 35 17 	call	0x2e6a	; 0x2e6a <__udivmodqi4>
    1522:	48 2f       	mov	r20, r24
    1524:	61 2f       	mov	r22, r17
    1526:	ce 01       	movw	r24, r28
    1528:	0e 94 75 04 	call	0x8ea	; 0x8ea <screen_draw_numeral>
    152c:	8f 2d       	mov	r24, r15
    152e:	60 2f       	mov	r22, r16
    1530:	0e 94 35 17 	call	0x2e6a	; 0x2e6a <__udivmodqi4>
    1534:	49 2f       	mov	r20, r25
    1536:	61 2f       	mov	r22, r17
    1538:	ce 01       	movw	r24, r28
    153a:	df 91       	pop	r29
    153c:	cf 91       	pop	r28
    153e:	1f 91       	pop	r17
    1540:	0f 91       	pop	r16
    1542:	ff 90       	pop	r15
    1544:	0c 94 75 04 	jmp	0x8ea	; 0x8ea <screen_draw_numeral>

00001548 <display_draw_time>:
    1548:	08 95       	ret

0000154a <display_refresh>:
    154a:	6f 92       	push	r6
    154c:	7f 92       	push	r7
    154e:	8f 92       	push	r8
    1550:	9f 92       	push	r9
    1552:	af 92       	push	r10
    1554:	bf 92       	push	r11
    1556:	cf 92       	push	r12
    1558:	df 92       	push	r13
    155a:	ef 92       	push	r14
    155c:	ff 92       	push	r15
    155e:	0f 93       	push	r16
    1560:	1f 93       	push	r17
    1562:	cf 93       	push	r28
    1564:	df 93       	push	r29
    1566:	00 d0       	rcall	.+0      	; 0x1568 <display_refresh+0x1e>
    1568:	00 d0       	rcall	.+0      	; 0x156a <display_refresh+0x20>
    156a:	1f 92       	push	r1
    156c:	cd b7       	in	r28, 0x3d	; 61
    156e:	de b7       	in	r29, 0x3e	; 62
    1570:	0e 94 1c 03 	call	0x638	; 0x638 <screen_init>
    1574:	00 e0       	ldi	r16, 0x00	; 0
    1576:	2f e3       	ldi	r18, 0x3F	; 63
    1578:	4f e7       	ldi	r20, 0x7F	; 127
    157a:	60 e0       	ldi	r22, 0x00	; 0
    157c:	80 e0       	ldi	r24, 0x00	; 0
    157e:	0e 94 5e 03 	call	0x6bc	; 0x6bc <screen_draw_rect>
    1582:	80 91 1f 01 	lds	r24, 0x011F
    1586:	88 23       	and	r24, r24
    1588:	09 f4       	brne	.+2      	; 0x158c <display_refresh+0x42>
    158a:	7b c1       	rjmp	.+758    	; 0x1882 <display_refresh+0x338>
    158c:	13 e0       	ldi	r17, 0x03	; 3
    158e:	6a e3       	ldi	r22, 0x3A	; 58
    1590:	f6 2e       	mov	r15, r22
    1592:	24 e3       	ldi	r18, 0x34	; 52
    1594:	21 0f       	add	r18, r17
    1596:	6f 2d       	mov	r22, r15
    1598:	61 1b       	sub	r22, r17
    159a:	01 e0       	ldi	r16, 0x01	; 1
    159c:	41 2f       	mov	r20, r17
    159e:	81 2f       	mov	r24, r17
    15a0:	0e 94 5e 03 	call	0x6bc	; 0x6bc <screen_draw_rect>
    15a4:	1f 5f       	subi	r17, 0xFF	; 255
    15a6:	19 30       	cpi	r17, 0x09	; 9
    15a8:	a1 f7       	brne	.-24     	; 0x1592 <display_refresh+0x48>
    15aa:	29 e3       	ldi	r18, 0x39	; 57
    15ac:	4e e0       	ldi	r20, 0x0E	; 14
    15ae:	65 e3       	ldi	r22, 0x35	; 53
    15b0:	88 e0       	ldi	r24, 0x08	; 8
    15b2:	0e 94 5e 03 	call	0x6bc	; 0x6bc <screen_draw_rect>
    15b6:	1e e0       	ldi	r17, 0x0E	; 14
    15b8:	56 e3       	ldi	r21, 0x36	; 54
    15ba:	f5 2e       	mov	r15, r21
    15bc:	2f 2d       	mov	r18, r15
    15be:	21 1b       	sub	r18, r17
    15c0:	6a e1       	ldi	r22, 0x1A	; 26
    15c2:	61 0f       	add	r22, r17
    15c4:	01 e0       	ldi	r16, 0x01	; 1
    15c6:	41 2f       	mov	r20, r17
    15c8:	81 2f       	mov	r24, r17
    15ca:	0e 94 5e 03 	call	0x6bc	; 0x6bc <screen_draw_rect>
    15ce:	11 50       	subi	r17, 0x01	; 1
    15d0:	18 30       	cpi	r17, 0x08	; 8
    15d2:	a1 f7       	brne	.-24     	; 0x15bc <display_refresh+0x72>
    15d4:	2a e2       	ldi	r18, 0x2A	; 42
    15d6:	48 e0       	ldi	r20, 0x08	; 8
    15d8:	66 e2       	ldi	r22, 0x26	; 38
    15da:	83 e0       	ldi	r24, 0x03	; 3
    15dc:	0e 94 5e 03 	call	0x6bc	; 0x6bc <screen_draw_rect>
    15e0:	0e 94 a4 08 	call	0x1148	; 0x1148 <display_draw_graph>
    15e4:	80 91 1f 01 	lds	r24, 0x011F
    15e8:	82 ff       	sbrs	r24, 2
    15ea:	11 c0       	rjmp	.+34     	; 0x160e <display_refresh+0xc4>
    15ec:	35 e0       	ldi	r19, 0x05	; 5
    15ee:	83 2e       	mov	r8, r19
    15f0:	46 e0       	ldi	r20, 0x06	; 6
    15f2:	a4 2e       	mov	r10, r20
    15f4:	c1 2c       	mov	r12, r1
    15f6:	e1 2c       	mov	r14, r1
    15f8:	03 e0       	ldi	r16, 0x03	; 3
    15fa:	26 e0       	ldi	r18, 0x06	; 6
    15fc:	45 e0       	ldi	r20, 0x05	; 5
    15fe:	6b e9       	ldi	r22, 0x9B	; 155
    1600:	8a e4       	ldi	r24, 0x4A	; 74
    1602:	91 e0       	ldi	r25, 0x01	; 1
    1604:	0e 94 e4 03 	call	0x7c8	; 0x7c8 <screen_blit_xbm>
    1608:	80 e0       	ldi	r24, 0x00	; 0
    160a:	0e 94 e9 09 	call	0x13d2	; 0x13d2 <display_draw_data>
    160e:	80 91 1f 01 	lds	r24, 0x011F
    1612:	81 ff       	sbrs	r24, 1
    1614:	12 c0       	rjmp	.+36     	; 0x163a <display_refresh+0xf0>
    1616:	85 e0       	ldi	r24, 0x05	; 5
    1618:	88 2e       	mov	r8, r24
    161a:	96 e0       	ldi	r25, 0x06	; 6
    161c:	a9 2e       	mov	r10, r25
    161e:	c1 2c       	mov	r12, r1
    1620:	26 e0       	ldi	r18, 0x06	; 6
    1622:	e2 2e       	mov	r14, r18
    1624:	09 e0       	ldi	r16, 0x09	; 9
    1626:	23 e0       	ldi	r18, 0x03	; 3
    1628:	45 e0       	ldi	r20, 0x05	; 5
    162a:	6b e9       	ldi	r22, 0x9B	; 155
    162c:	8a e4       	ldi	r24, 0x4A	; 74
    162e:	91 e0       	ldi	r25, 0x01	; 1
    1630:	0e 94 e4 03 	call	0x7c8	; 0x7c8 <screen_blit_xbm>
    1634:	82 e0       	ldi	r24, 0x02	; 2
    1636:	0e 94 e9 09 	call	0x13d2	; 0x13d2 <display_draw_data>
    163a:	80 91 1f 01 	lds	r24, 0x011F
    163e:	80 ff       	sbrs	r24, 0
    1640:	12 c0       	rjmp	.+36     	; 0x1666 <display_refresh+0x11c>
    1642:	b5 e0       	ldi	r27, 0x05	; 5
    1644:	8b 2e       	mov	r8, r27
    1646:	16 e0       	ldi	r17, 0x06	; 6
    1648:	a1 2e       	mov	r10, r17
    164a:	c1 2c       	mov	r12, r1
    164c:	0c e0       	ldi	r16, 0x0C	; 12
    164e:	e0 2e       	mov	r14, r16
    1650:	09 e0       	ldi	r16, 0x09	; 9
    1652:	29 e0       	ldi	r18, 0x09	; 9
    1654:	45 e0       	ldi	r20, 0x05	; 5
    1656:	6b e9       	ldi	r22, 0x9B	; 155
    1658:	8a e4       	ldi	r24, 0x4A	; 74
    165a:	91 e0       	ldi	r25, 0x01	; 1
    165c:	0e 94 e4 03 	call	0x7c8	; 0x7c8 <screen_blit_xbm>
    1660:	84 e0       	ldi	r24, 0x04	; 4
    1662:	0e 94 e9 09 	call	0x13d2	; 0x13d2 <display_draw_data>
    1666:	80 91 de 01 	lds	r24, 0x01DE
    166a:	81 11       	cpse	r24, r1
    166c:	12 c0       	rjmp	.+36     	; 0x1692 <display_refresh+0x148>
    166e:	86 e0       	ldi	r24, 0x06	; 6
    1670:	8d 83       	std	Y+5, r24	; 0x05
    1672:	47 e0       	ldi	r20, 0x07	; 7
    1674:	62 e1       	ldi	r22, 0x12	; 18
    1676:	ce 01       	movw	r24, r28
    1678:	05 96       	adiw	r24, 0x05	; 5
    167a:	0e 94 75 04 	call	0x8ea	; 0x8ea <screen_draw_numeral>
    167e:	e5 e0       	ldi	r30, 0x05	; 5
    1680:	8e 2e       	mov	r8, r30
    1682:	f6 e0       	ldi	r31, 0x06	; 6
    1684:	af 2e       	mov	r10, r31
    1686:	c1 2c       	mov	r12, r1
    1688:	a2 e1       	ldi	r26, 0x12	; 18
    168a:	ea 2e       	mov	r14, r26
    168c:	08 e1       	ldi	r16, 0x18	; 24
    168e:	26 e0       	ldi	r18, 0x06	; 6
    1690:	2e c0       	rjmp	.+92     	; 0x16ee <display_refresh+0x1a4>
    1692:	81 30       	cpi	r24, 0x01	; 1
    1694:	39 f4       	brne	.+14     	; 0x16a4 <display_refresh+0x15a>
    1696:	48 e1       	ldi	r20, 0x18	; 24
    1698:	50 e0       	ldi	r21, 0x00	; 0
    169a:	62 e1       	ldi	r22, 0x12	; 18
    169c:	83 e0       	ldi	r24, 0x03	; 3
    169e:	0e 94 b5 04 	call	0x96a	; 0x96a <screen_draw_number>
    16a2:	13 c0       	rjmp	.+38     	; 0x16ca <display_refresh+0x180>
    16a4:	82 30       	cpi	r24, 0x02	; 2
    16a6:	39 f4       	brne	.+14     	; 0x16b6 <display_refresh+0x16c>
    16a8:	86 e0       	ldi	r24, 0x06	; 6
    16aa:	8c 83       	std	Y+4, r24	; 0x04
    16ac:	46 e0       	ldi	r20, 0x06	; 6
    16ae:	62 e1       	ldi	r22, 0x12	; 18
    16b0:	ce 01       	movw	r24, r28
    16b2:	04 96       	adiw	r24, 0x04	; 4
    16b4:	08 c0       	rjmp	.+16     	; 0x16c6 <display_refresh+0x17c>
    16b6:	83 30       	cpi	r24, 0x03	; 3
    16b8:	01 f5       	brne	.+64     	; 0x16fa <display_refresh+0x1b0>
    16ba:	87 e0       	ldi	r24, 0x07	; 7
    16bc:	8b 83       	std	Y+3, r24	; 0x03
    16be:	41 e0       	ldi	r20, 0x01	; 1
    16c0:	62 e1       	ldi	r22, 0x12	; 18
    16c2:	ce 01       	movw	r24, r28
    16c4:	03 96       	adiw	r24, 0x03	; 3
    16c6:	0e 94 75 04 	call	0x8ea	; 0x8ea <screen_draw_numeral>
    16ca:	45 e0       	ldi	r20, 0x05	; 5
    16cc:	84 2e       	mov	r8, r20
    16ce:	56 e0       	ldi	r21, 0x06	; 6
    16d0:	a5 2e       	mov	r10, r21
    16d2:	c1 2c       	mov	r12, r1
    16d4:	6a e2       	ldi	r22, 0x2A	; 42
    16d6:	e6 2e       	mov	r14, r22
    16d8:	08 e1       	ldi	r16, 0x18	; 24
    16da:	23 e0       	ldi	r18, 0x03	; 3
    16dc:	45 e0       	ldi	r20, 0x05	; 5
    16de:	6b e9       	ldi	r22, 0x9B	; 155
    16e0:	8a e4       	ldi	r24, 0x4A	; 74
    16e2:	91 e0       	ldi	r25, 0x01	; 1
    16e4:	0e 94 e4 03 	call	0x7c8	; 0x7c8 <screen_blit_xbm>
    16e8:	76 e6       	ldi	r23, 0x66	; 102
    16ea:	e7 2e       	mov	r14, r23
    16ec:	29 e0       	ldi	r18, 0x09	; 9
    16ee:	45 e0       	ldi	r20, 0x05	; 5
    16f0:	6b e9       	ldi	r22, 0x9B	; 155
    16f2:	8a e4       	ldi	r24, 0x4A	; 74
    16f4:	91 e0       	ldi	r25, 0x01	; 1
    16f6:	0e 94 e4 03 	call	0x7c8	; 0x7c8 <screen_blit_xbm>
    16fa:	80 91 e1 01 	lds	r24, 0x01E1
    16fe:	01 e0       	ldi	r16, 0x01	; 1
    1700:	20 e0       	ldi	r18, 0x00	; 0
    1702:	4e e7       	ldi	r20, 0x7E	; 126
    1704:	60 e0       	ldi	r22, 0x00	; 0
    1706:	8f 5f       	subi	r24, 0xFF	; 255
    1708:	0e 94 5e 03 	call	0x6bc	; 0x6bc <screen_draw_rect>
    170c:	80 91 e1 01 	lds	r24, 0x01E1
    1710:	2f e3       	ldi	r18, 0x3F	; 63
    1712:	4e e7       	ldi	r20, 0x7E	; 126
    1714:	6f e3       	ldi	r22, 0x3F	; 63
    1716:	8f 5f       	subi	r24, 0xFF	; 255
    1718:	0e 94 5e 03 	call	0x6bc	; 0x6bc <screen_draw_rect>
    171c:	2f e3       	ldi	r18, 0x3F	; 63
    171e:	4f e7       	ldi	r20, 0x7F	; 127
    1720:	60 e0       	ldi	r22, 0x00	; 0
    1722:	8f e7       	ldi	r24, 0x7F	; 127
    1724:	0e 94 5e 03 	call	0x6bc	; 0x6bc <screen_draw_rect>
    1728:	80 91 de 01 	lds	r24, 0x01DE
    172c:	88 23       	and	r24, r24
    172e:	09 f4       	brne	.+2      	; 0x1732 <display_refresh+0x1e8>
    1730:	52 c0       	rjmp	.+164    	; 0x17d6 <display_refresh+0x28c>
    1732:	86 e4       	ldi	r24, 0x46	; 70
    1734:	89 83       	std	Y+1, r24	; 0x01
    1736:	80 91 df 01 	lds	r24, 0x01DF
    173a:	90 91 e0 01 	lds	r25, 0x01E0
    173e:	60 e6       	ldi	r22, 0x60	; 96
    1740:	7a ef       	ldi	r23, 0xFA	; 250
    1742:	0e 94 63 17 	call	0x2ec6	; 0x2ec6 <__divmodhi4>
    1746:	46 2f       	mov	r20, r22
    1748:	62 e0       	ldi	r22, 0x02	; 2
    174a:	ce 01       	movw	r24, r28
    174c:	01 96       	adiw	r24, 0x01	; 1
    174e:	0e 94 75 04 	call	0x8ea	; 0x8ea <screen_draw_numeral>
    1752:	95 e0       	ldi	r25, 0x05	; 5
    1754:	89 2e       	mov	r8, r25
    1756:	26 e0       	ldi	r18, 0x06	; 6
    1758:	a2 2e       	mov	r10, r18
    175a:	c1 2c       	mov	r12, r1
    175c:	32 e1       	ldi	r19, 0x12	; 18
    175e:	e3 2e       	mov	r14, r19
    1760:	02 e0       	ldi	r16, 0x02	; 2
    1762:	29 81       	ldd	r18, Y+1	; 0x01
    1764:	45 e0       	ldi	r20, 0x05	; 5
    1766:	6b e9       	ldi	r22, 0x9B	; 155
    1768:	8a e4       	ldi	r24, 0x4A	; 74
    176a:	91 e0       	ldi	r25, 0x01	; 1
    176c:	0e 94 e4 03 	call	0x7c8	; 0x7c8 <screen_blit_xbm>
    1770:	89 81       	ldd	r24, Y+1	; 0x01
    1772:	88 5f       	subi	r24, 0xF8	; 248
    1774:	89 83       	std	Y+1, r24	; 0x01
    1776:	80 91 df 01 	lds	r24, 0x01DF
    177a:	90 91 e0 01 	lds	r25, 0x01E0
    177e:	91 95       	neg	r25
    1780:	81 95       	neg	r24
    1782:	91 09       	sbc	r25, r1
    1784:	60 ea       	ldi	r22, 0xA0	; 160
    1786:	75 e0       	ldi	r23, 0x05	; 5
    1788:	0e 94 63 17 	call	0x2ec6	; 0x2ec6 <__divmodhi4>
    178c:	0c e3       	ldi	r16, 0x3C	; 60
    178e:	10 e0       	ldi	r17, 0x00	; 0
    1790:	b8 01       	movw	r22, r16
    1792:	0e 94 63 17 	call	0x2ec6	; 0x2ec6 <__divmodhi4>
    1796:	46 2f       	mov	r20, r22
    1798:	62 e0       	ldi	r22, 0x02	; 2
    179a:	ce 01       	movw	r24, r28
    179c:	01 96       	adiw	r24, 0x01	; 1
    179e:	0e 94 80 0a 	call	0x1500	; 0x1500 <display_draw_time_segment>
    17a2:	99 81       	ldd	r25, Y+1	; 0x01
    17a4:	e9 2f       	mov	r30, r25
    17a6:	f0 e0       	ldi	r31, 0x00	; 0
    17a8:	e7 59       	subi	r30, 0x97	; 151
    17aa:	fd 4f       	sbci	r31, 0xFD	; 253
    17ac:	80 81       	ld	r24, Z
    17ae:	88 62       	ori	r24, 0x28	; 40
    17b0:	80 83       	st	Z, r24
    17b2:	9e 5f       	subi	r25, 0xFE	; 254
    17b4:	99 83       	std	Y+1, r25	; 0x01
    17b6:	80 91 df 01 	lds	r24, 0x01DF
    17ba:	90 91 e0 01 	lds	r25, 0x01E0
    17be:	91 95       	neg	r25
    17c0:	81 95       	neg	r24
    17c2:	91 09       	sbc	r25, r1
    17c4:	b8 01       	movw	r22, r16
    17c6:	0e 94 63 17 	call	0x2ec6	; 0x2ec6 <__divmodhi4>
    17ca:	48 2f       	mov	r20, r24
    17cc:	62 e0       	ldi	r22, 0x02	; 2
    17ce:	ce 01       	movw	r24, r28
    17d0:	01 96       	adiw	r24, 0x01	; 1
    17d2:	0e 94 80 0a 	call	0x1500	; 0x1500 <display_draw_time_segment>
    17d6:	60 91 21 01 	lds	r22, 0x0121
    17da:	60 52       	subi	r22, 0x20	; 32
    17dc:	80 91 e1 01 	lds	r24, 0x01E1
    17e0:	4e e1       	ldi	r20, 0x1E	; 30
    17e2:	50 e0       	ldi	r21, 0x00	; 0
    17e4:	8c 50       	subi	r24, 0x0C	; 12
    17e6:	0e 94 b5 04 	call	0x96a	; 0x96a <screen_draw_number>
    17ea:	60 91 21 01 	lds	r22, 0x0121
    17ee:	66 51       	subi	r22, 0x16	; 22
    17f0:	80 91 e1 01 	lds	r24, 0x01E1
    17f4:	44 e1       	ldi	r20, 0x14	; 20
    17f6:	50 e0       	ldi	r21, 0x00	; 0
    17f8:	8c 50       	subi	r24, 0x0C	; 12
    17fa:	0e 94 b5 04 	call	0x96a	; 0x96a <screen_draw_number>
    17fe:	60 91 21 01 	lds	r22, 0x0121
    1802:	6c 50       	subi	r22, 0x0C	; 12
    1804:	80 91 e1 01 	lds	r24, 0x01E1
    1808:	4a e0       	ldi	r20, 0x0A	; 10
    180a:	50 e0       	ldi	r21, 0x00	; 0
    180c:	89 50       	subi	r24, 0x09	; 9
    180e:	0e 94 b5 04 	call	0x96a	; 0x96a <screen_draw_number>
    1812:	60 91 21 01 	lds	r22, 0x0121
    1816:	62 50       	subi	r22, 0x02	; 2
    1818:	80 91 e1 01 	lds	r24, 0x01E1
    181c:	86 50       	subi	r24, 0x06	; 6
    181e:	8a 83       	std	Y+2, r24	; 0x02
    1820:	40 e0       	ldi	r20, 0x00	; 0
    1822:	ce 01       	movw	r24, r28
    1824:	02 96       	adiw	r24, 0x02	; 2
    1826:	0e 94 75 04 	call	0x8ea	; 0x8ea <screen_draw_numeral>
    182a:	60 91 21 01 	lds	r22, 0x0121
    182e:	68 5f       	subi	r22, 0xF8	; 248
    1830:	80 91 e1 01 	lds	r24, 0x01E1
    1834:	4a e0       	ldi	r20, 0x0A	; 10
    1836:	50 e0       	ldi	r21, 0x00	; 0
    1838:	89 50       	subi	r24, 0x09	; 9
    183a:	0e 94 b5 04 	call	0x96a	; 0x96a <screen_draw_number>
    183e:	60 91 21 01 	lds	r22, 0x0121
    1842:	6e 5e       	subi	r22, 0xEE	; 238
    1844:	80 91 e1 01 	lds	r24, 0x01E1
    1848:	44 e1       	ldi	r20, 0x14	; 20
    184a:	50 e0       	ldi	r21, 0x00	; 0
    184c:	8c 50       	subi	r24, 0x0C	; 12
    184e:	0e 94 b5 04 	call	0x96a	; 0x96a <screen_draw_number>
    1852:	80 91 e1 01 	lds	r24, 0x01E1
    1856:	60 91 21 01 	lds	r22, 0x0121
    185a:	66 5f       	subi	r22, 0xF6	; 246
    185c:	43 ef       	ldi	r20, 0xF3	; 243
    185e:	48 0f       	add	r20, r24
    1860:	01 e0       	ldi	r16, 0x01	; 1
    1862:	26 2f       	mov	r18, r22
    1864:	8f 50       	subi	r24, 0x0F	; 15
    1866:	0e 94 5e 03 	call	0x6bc	; 0x6bc <screen_draw_rect>
    186a:	80 91 e1 01 	lds	r24, 0x01E1
    186e:	60 91 21 01 	lds	r22, 0x0121
    1872:	6c 5e       	subi	r22, 0xEC	; 236
    1874:	40 ef       	ldi	r20, 0xF0	; 240
    1876:	48 0f       	add	r20, r24
    1878:	26 2f       	mov	r18, r22
    187a:	82 51       	subi	r24, 0x12	; 18
    187c:	0e 94 5e 03 	call	0x6bc	; 0x6bc <screen_draw_rect>
    1880:	89 c1       	rjmp	.+786    	; 0x1b94 <display_refresh+0x64a>
    1882:	5f 9a       	sbi	0x0b, 7	; 11
    1884:	25 e0       	ldi	r18, 0x05	; 5
    1886:	82 2e       	mov	r8, r18
    1888:	36 e0       	ldi	r19, 0x06	; 6
    188a:	a3 2e       	mov	r10, r19
    188c:	c1 2c       	mov	r12, r1
    188e:	42 e4       	ldi	r20, 0x42	; 66
    1890:	e4 2e       	mov	r14, r20
    1892:	03 e0       	ldi	r16, 0x03	; 3
    1894:	23 e0       	ldi	r18, 0x03	; 3
    1896:	45 e0       	ldi	r20, 0x05	; 5
    1898:	6b e9       	ldi	r22, 0x9B	; 155
    189a:	8a e4       	ldi	r24, 0x4A	; 74
    189c:	91 e0       	ldi	r25, 0x01	; 1
    189e:	0e 94 e4 03 	call	0x7c8	; 0x7c8 <screen_blit_xbm>
    18a2:	50 e3       	ldi	r21, 0x30	; 48
    18a4:	e5 2e       	mov	r14, r21
    18a6:	29 e0       	ldi	r18, 0x09	; 9
    18a8:	45 e0       	ldi	r20, 0x05	; 5
    18aa:	6b e9       	ldi	r22, 0x9B	; 155
    18ac:	8a e4       	ldi	r24, 0x4A	; 74
    18ae:	91 e0       	ldi	r25, 0x01	; 1
    18b0:	0e 94 e4 03 	call	0x7c8	; 0x7c8 <screen_blit_xbm>
    18b4:	6e e7       	ldi	r22, 0x7E	; 126
    18b6:	e6 2e       	mov	r14, r22
    18b8:	09 e0       	ldi	r16, 0x09	; 9
    18ba:	23 e0       	ldi	r18, 0x03	; 3
    18bc:	45 e0       	ldi	r20, 0x05	; 5
    18be:	6b e9       	ldi	r22, 0x9B	; 155
    18c0:	8a e4       	ldi	r24, 0x4A	; 74
    18c2:	91 e0       	ldi	r25, 0x01	; 1
    18c4:	0e 94 e4 03 	call	0x7c8	; 0x7c8 <screen_blit_xbm>
    18c8:	78 e1       	ldi	r23, 0x18	; 24
    18ca:	e7 2e       	mov	r14, r23
    18cc:	29 e0       	ldi	r18, 0x09	; 9
    18ce:	45 e0       	ldi	r20, 0x05	; 5
    18d0:	6b e9       	ldi	r22, 0x9B	; 155
    18d2:	8a e4       	ldi	r24, 0x4A	; 74
    18d4:	91 e0       	ldi	r25, 0x01	; 1
    18d6:	0e 94 e4 03 	call	0x7c8	; 0x7c8 <screen_blit_xbm>
    18da:	e1 2c       	mov	r14, r1
    18dc:	08 e0       	ldi	r16, 0x08	; 8
    18de:	24 e1       	ldi	r18, 0x14	; 20
    18e0:	45 e0       	ldi	r20, 0x05	; 5
    18e2:	6b e9       	ldi	r22, 0x9B	; 155
    18e4:	8a e4       	ldi	r24, 0x4A	; 74
    18e6:	91 e0       	ldi	r25, 0x01	; 1
    18e8:	0e 94 e4 03 	call	0x7c8	; 0x7c8 <screen_blit_xbm>
    18ec:	e6 e0       	ldi	r30, 0x06	; 6
    18ee:	ee 2e       	mov	r14, r30
    18f0:	0c e1       	ldi	r16, 0x1C	; 28
    18f2:	24 e1       	ldi	r18, 0x14	; 20
    18f4:	45 e0       	ldi	r20, 0x05	; 5
    18f6:	6b e9       	ldi	r22, 0x9B	; 155
    18f8:	8a e4       	ldi	r24, 0x4A	; 74
    18fa:	91 e0       	ldi	r25, 0x01	; 1
    18fc:	0e 94 e4 03 	call	0x7c8	; 0x7c8 <screen_blit_xbm>
    1900:	fc e0       	ldi	r31, 0x0C	; 12
    1902:	ef 2e       	mov	r14, r31
    1904:	00 e3       	ldi	r16, 0x30	; 48
    1906:	24 e1       	ldi	r18, 0x14	; 20
    1908:	45 e0       	ldi	r20, 0x05	; 5
    190a:	6b e9       	ldi	r22, 0x9B	; 155
    190c:	8a e4       	ldi	r24, 0x4A	; 74
    190e:	91 e0       	ldi	r25, 0x01	; 1
    1910:	0e 94 e4 03 	call	0x7c8	; 0x7c8 <screen_blit_xbm>
    1914:	80 91 20 01 	lds	r24, 0x0120
    1918:	01 e0       	ldi	r16, 0x01	; 1
    191a:	2c e0       	ldi	r18, 0x0C	; 12
    191c:	48 2f       	mov	r20, r24
    191e:	68 e0       	ldi	r22, 0x08	; 8
    1920:	0e 94 5e 03 	call	0x6bc	; 0x6bc <screen_draw_rect>
    1924:	80 91 20 01 	lds	r24, 0x0120
    1928:	20 e2       	ldi	r18, 0x20	; 32
    192a:	48 2f       	mov	r20, r24
    192c:	6c e1       	ldi	r22, 0x1C	; 28
    192e:	0e 94 5e 03 	call	0x6bc	; 0x6bc <screen_draw_rect>
    1932:	80 91 20 01 	lds	r24, 0x0120
    1936:	24 e3       	ldi	r18, 0x34	; 52
    1938:	48 2f       	mov	r20, r24
    193a:	60 e3       	ldi	r22, 0x30	; 48
    193c:	0e 94 5e 03 	call	0x6bc	; 0x6bc <screen_draw_rect>
    1940:	a7 e0       	ldi	r26, 0x07	; 7
    1942:	8a 2e       	mov	r8, r26
    1944:	a3 e0       	ldi	r26, 0x03	; 3
    1946:	9a 2e       	mov	r9, r26
    1948:	b7 e0       	ldi	r27, 0x07	; 7
    194a:	cb 2e       	mov	r12, r27
    194c:	b4 e0       	ldi	r27, 0x04	; 4
    194e:	db 2e       	mov	r13, r27
    1950:	17 e8       	ldi	r17, 0x87	; 135
    1952:	a1 2e       	mov	r10, r17
    1954:	15 e0       	ldi	r17, 0x05	; 5
    1956:	b1 2e       	mov	r11, r17
    1958:	0e e1       	ldi	r16, 0x1E	; 30
    195a:	e0 2e       	mov	r14, r16
    195c:	f1 2c       	mov	r15, r1
    195e:	8a e0       	ldi	r24, 0x0A	; 10
    1960:	68 2e       	mov	r6, r24
    1962:	71 2c       	mov	r7, r1
    1964:	1e 2d       	mov	r17, r14
    1966:	80 e8       	ldi	r24, 0x80	; 128
    1968:	e8 16       	cp	r14, r24
    196a:	f1 04       	cpc	r15, r1
    196c:	09 f4       	brne	.+2      	; 0x1970 <display_refresh+0x426>
    196e:	54 c0       	rjmp	.+168    	; 0x1a18 <display_refresh+0x4ce>
    1970:	20 91 20 01 	lds	r18, 0x0120
    1974:	30 e0       	ldi	r19, 0x00	; 0
    1976:	f9 01       	movw	r30, r18
    1978:	ee 19       	sub	r30, r14
    197a:	ff 09       	sbc	r31, r15
    197c:	1e 16       	cp	r1, r30
    197e:	1f 06       	cpc	r1, r31
    1980:	3c f4       	brge	.+14     	; 0x1990 <display_refresh+0x446>
    1982:	cf 01       	movw	r24, r30
    1984:	b3 01       	movw	r22, r6
    1986:	0e 94 63 17 	call	0x2ec6	; 0x2ec6 <__divmodhi4>
    198a:	89 2b       	or	r24, r25
    198c:	01 f5       	brne	.+64     	; 0x19ce <display_refresh+0x484>
    198e:	0b c0       	rjmp	.+22     	; 0x19a6 <display_refresh+0x45c>
    1990:	31 95       	neg	r19
    1992:	21 95       	neg	r18
    1994:	31 09       	sbc	r19, r1
    1996:	2e 19       	sub	r18, r14
    1998:	3f 09       	sbc	r19, r15
    199a:	c9 01       	movw	r24, r18
    199c:	b3 01       	movw	r22, r6
    199e:	0e 94 63 17 	call	0x2ec6	; 0x2ec6 <__divmodhi4>
    19a2:	89 2b       	or	r24, r25
    19a4:	d1 f4       	brne	.+52     	; 0x19da <display_refresh+0x490>
    19a6:	01 e0       	ldi	r16, 0x01	; 1
    19a8:	2b e0       	ldi	r18, 0x0B	; 11
    19aa:	41 2f       	mov	r20, r17
    19ac:	69 e0       	ldi	r22, 0x09	; 9
    19ae:	81 2f       	mov	r24, r17
    19b0:	0e 94 5e 03 	call	0x6bc	; 0x6bc <screen_draw_rect>
    19b4:	2f e1       	ldi	r18, 0x1F	; 31
    19b6:	41 2f       	mov	r20, r17
    19b8:	6d e1       	ldi	r22, 0x1D	; 29
    19ba:	81 2f       	mov	r24, r17
    19bc:	0e 94 5e 03 	call	0x6bc	; 0x6bc <screen_draw_rect>
    19c0:	23 e3       	ldi	r18, 0x33	; 51
    19c2:	41 2f       	mov	r20, r17
    19c4:	61 e3       	ldi	r22, 0x31	; 49
    19c6:	81 2f       	mov	r24, r17
    19c8:	0e 94 5e 03 	call	0x6bc	; 0x6bc <screen_draw_rect>
    19cc:	18 c0       	rjmp	.+48     	; 0x19fe <display_refresh+0x4b4>
    19ce:	e1 70       	andi	r30, 0x01	; 1
    19d0:	ff 27       	eor	r31, r31
    19d2:	81 e0       	ldi	r24, 0x01	; 1
    19d4:	e8 27       	eor	r30, r24
    19d6:	2e 2f       	mov	r18, r30
    19d8:	04 c0       	rjmp	.+8      	; 0x19e2 <display_refresh+0x498>
    19da:	21 70       	andi	r18, 0x01	; 1
    19dc:	33 27       	eor	r19, r19
    19de:	e1 e0       	ldi	r30, 0x01	; 1
    19e0:	2e 27       	eor	r18, r30
    19e2:	21 70       	andi	r18, 0x01	; 1
    19e4:	61 f0       	breq	.+24     	; 0x19fe <display_refresh+0x4b4>
    19e6:	f4 01       	movw	r30, r8
    19e8:	80 81       	ld	r24, Z
    19ea:	84 60       	ori	r24, 0x04	; 4
    19ec:	80 83       	st	Z, r24
    19ee:	f6 01       	movw	r30, r12
    19f0:	80 81       	ld	r24, Z
    19f2:	80 64       	ori	r24, 0x40	; 64
    19f4:	80 83       	st	Z, r24
    19f6:	f5 01       	movw	r30, r10
    19f8:	80 81       	ld	r24, Z
    19fa:	84 60       	ori	r24, 0x04	; 4
    19fc:	80 83       	st	Z, r24
    19fe:	ff ef       	ldi	r31, 0xFF	; 255
    1a00:	8f 1a       	sub	r8, r31
    1a02:	9f 0a       	sbc	r9, r31
    1a04:	8f ef       	ldi	r24, 0xFF	; 255
    1a06:	c8 1a       	sub	r12, r24
    1a08:	d8 0a       	sbc	r13, r24
    1a0a:	ef ef       	ldi	r30, 0xFF	; 255
    1a0c:	ae 1a       	sub	r10, r30
    1a0e:	be 0a       	sbc	r11, r30
    1a10:	ff ef       	ldi	r31, 0xFF	; 255
    1a12:	ef 1a       	sub	r14, r31
    1a14:	ff 0a       	sbc	r15, r31
    1a16:	a6 cf       	rjmp	.-180    	; 0x1964 <display_refresh+0x41a>
    1a18:	85 e7       	ldi	r24, 0x75	; 117
    1a1a:	92 e0       	ldi	r25, 0x02	; 2
    1a1c:	9f 93       	push	r25
    1a1e:	8f 93       	push	r24
    1a20:	0e 94 e2 18 	call	0x31c4	; 0x31c4 <printf_P>
    1a24:	0f 90       	pop	r0
    1a26:	0f 90       	pop	r0
    1a28:	80 e9       	ldi	r24, 0x90	; 144
    1a2a:	0e 94 4d 08 	call	0x109a	; 0x109a <tmp102_readraw>
    1a2e:	7c 01       	movw	r14, r24
    1a30:	8f 3f       	cpi	r24, 0xFF	; 255
    1a32:	ef e0       	ldi	r30, 0x0F	; 15
    1a34:	9e 07       	cpc	r25, r30
    1a36:	c1 f3       	breq	.-16     	; 0x1a28 <display_refresh+0x4de>
    1a38:	bc 01       	movw	r22, r24
    1a3a:	88 27       	eor	r24, r24
    1a3c:	77 fd       	sbrc	r23, 7
    1a3e:	80 95       	com	r24
    1a40:	98 2f       	mov	r25, r24
    1a42:	0e 94 46 16 	call	0x2c8c	; 0x2c8c <__floatsisf>
    1a46:	20 e0       	ldi	r18, 0x00	; 0
    1a48:	30 e0       	ldi	r19, 0x00	; 0
    1a4a:	40 e8       	ldi	r20, 0x80	; 128
    1a4c:	5d e3       	ldi	r21, 0x3D	; 61
    1a4e:	0e 94 aa 16 	call	0x2d54	; 0x2d54 <__mulsf3>
    1a52:	0e 94 13 16 	call	0x2c26	; 0x2c26 <__fixsfsi>
    1a56:	16 2f       	mov	r17, r22
    1a58:	80 91 20 01 	lds	r24, 0x0120
    1a5c:	81 0f       	add	r24, r17
    1a5e:	41 e0       	ldi	r20, 0x01	; 1
    1a60:	48 0f       	add	r20, r24
    1a62:	02 e0       	ldi	r16, 0x02	; 2
    1a64:	2d e0       	ldi	r18, 0x0D	; 13
    1a66:	67 e0       	ldi	r22, 0x07	; 7
    1a68:	81 50       	subi	r24, 0x01	; 1
    1a6a:	0e 94 5e 03 	call	0x6bc	; 0x6bc <screen_draw_rect>
    1a6e:	80 91 20 01 	lds	r24, 0x0120
    1a72:	8c 50       	subi	r24, 0x0C	; 12
    1a74:	a7 01       	movw	r20, r14
    1a76:	6f e0       	ldi	r22, 0x0F	; 15
    1a78:	81 0f       	add	r24, r17
    1a7a:	0e 94 1b 05 	call	0xa36	; 0xa36 <screen_draw_temp>
    1a7e:	82 e9       	ldi	r24, 0x92	; 146
    1a80:	0e 94 4d 08 	call	0x109a	; 0x109a <tmp102_readraw>
    1a84:	7c 01       	movw	r14, r24
    1a86:	8f 3f       	cpi	r24, 0xFF	; 255
    1a88:	ff e0       	ldi	r31, 0x0F	; 15
    1a8a:	9f 07       	cpc	r25, r31
    1a8c:	c1 f3       	breq	.-16     	; 0x1a7e <display_refresh+0x534>
    1a8e:	bc 01       	movw	r22, r24
    1a90:	88 27       	eor	r24, r24
    1a92:	77 fd       	sbrc	r23, 7
    1a94:	80 95       	com	r24
    1a96:	98 2f       	mov	r25, r24
    1a98:	0e 94 46 16 	call	0x2c8c	; 0x2c8c <__floatsisf>
    1a9c:	20 e0       	ldi	r18, 0x00	; 0
    1a9e:	30 e0       	ldi	r19, 0x00	; 0
    1aa0:	40 e8       	ldi	r20, 0x80	; 128
    1aa2:	5d e3       	ldi	r21, 0x3D	; 61
    1aa4:	0e 94 aa 16 	call	0x2d54	; 0x2d54 <__mulsf3>
    1aa8:	0e 94 13 16 	call	0x2c26	; 0x2c26 <__fixsfsi>
    1aac:	16 2f       	mov	r17, r22
    1aae:	80 91 20 01 	lds	r24, 0x0120
    1ab2:	81 0f       	add	r24, r17
    1ab4:	41 e0       	ldi	r20, 0x01	; 1
    1ab6:	48 0f       	add	r20, r24
    1ab8:	02 e0       	ldi	r16, 0x02	; 2
    1aba:	21 e2       	ldi	r18, 0x21	; 33
    1abc:	6b e1       	ldi	r22, 0x1B	; 27
    1abe:	81 50       	subi	r24, 0x01	; 1
    1ac0:	0e 94 5e 03 	call	0x6bc	; 0x6bc <screen_draw_rect>
    1ac4:	80 91 20 01 	lds	r24, 0x0120
    1ac8:	8c 50       	subi	r24, 0x0C	; 12
    1aca:	a7 01       	movw	r20, r14
    1acc:	63 e2       	ldi	r22, 0x23	; 35
    1ace:	81 0f       	add	r24, r17
    1ad0:	0e 94 1b 05 	call	0xa36	; 0xa36 <screen_draw_temp>
    1ad4:	84 e9       	ldi	r24, 0x94	; 148
    1ad6:	0e 94 4d 08 	call	0x109a	; 0x109a <tmp102_readraw>
    1ada:	8c 01       	movw	r16, r24
    1adc:	0f 3f       	cpi	r16, 0xFF	; 255
    1ade:	8f e0       	ldi	r24, 0x0F	; 15
    1ae0:	18 07       	cpc	r17, r24
    1ae2:	c1 f3       	breq	.-16     	; 0x1ad4 <display_refresh+0x58a>
    1ae4:	b8 01       	movw	r22, r16
    1ae6:	88 27       	eor	r24, r24
    1ae8:	77 fd       	sbrc	r23, 7
    1aea:	80 95       	com	r24
    1aec:	98 2f       	mov	r25, r24
    1aee:	0e 94 46 16 	call	0x2c8c	; 0x2c8c <__floatsisf>
    1af2:	20 e0       	ldi	r18, 0x00	; 0
    1af4:	30 e0       	ldi	r19, 0x00	; 0
    1af6:	40 e8       	ldi	r20, 0x80	; 128
    1af8:	5d e3       	ldi	r21, 0x3D	; 61
    1afa:	0e 94 aa 16 	call	0x2d54	; 0x2d54 <__mulsf3>
    1afe:	0e 94 13 16 	call	0x2c26	; 0x2c26 <__fixsfsi>
    1b02:	f6 2e       	mov	r15, r22
    1b04:	80 91 20 01 	lds	r24, 0x0120
    1b08:	8c 50       	subi	r24, 0x0C	; 12
    1b0a:	a8 01       	movw	r20, r16
    1b0c:	67 e3       	ldi	r22, 0x37	; 55
    1b0e:	8f 0d       	add	r24, r15
    1b10:	0e 94 1b 05 	call	0xa36	; 0xa36 <screen_draw_temp>
    1b14:	80 91 20 01 	lds	r24, 0x0120
    1b18:	8f 0d       	add	r24, r15
    1b1a:	41 e0       	ldi	r20, 0x01	; 1
    1b1c:	48 0f       	add	r20, r24
    1b1e:	02 e0       	ldi	r16, 0x02	; 2
    1b20:	25 e3       	ldi	r18, 0x35	; 53
    1b22:	6f e2       	ldi	r22, 0x2F	; 47
    1b24:	81 50       	subi	r24, 0x01	; 1
    1b26:	0e 94 5e 03 	call	0x6bc	; 0x6bc <screen_draw_rect>
    1b2a:	80 91 20 01 	lds	r24, 0x0120
    1b2e:	45 ee       	ldi	r20, 0xE5	; 229
    1b30:	48 0f       	add	r20, r24
    1b32:	01 e0       	ldi	r16, 0x01	; 1
    1b34:	23 e0       	ldi	r18, 0x03	; 3
    1b36:	63 e0       	ldi	r22, 0x03	; 3
    1b38:	8d 51       	subi	r24, 0x1D	; 29
    1b3a:	0e 94 5e 03 	call	0x6bc	; 0x6bc <screen_draw_rect>
    1b3e:	80 91 20 01 	lds	r24, 0x0120
    1b42:	44 e1       	ldi	r20, 0x14	; 20
    1b44:	50 e0       	ldi	r21, 0x00	; 0
    1b46:	61 e0       	ldi	r22, 0x01	; 1
    1b48:	89 51       	subi	r24, 0x19	; 25
    1b4a:	0e 94 b5 04 	call	0x96a	; 0x96a <screen_draw_number>
    1b4e:	80 91 20 01 	lds	r24, 0x0120
    1b52:	82 50       	subi	r24, 0x02	; 2
    1b54:	89 83       	std	Y+1, r24	; 0x01
    1b56:	40 e0       	ldi	r20, 0x00	; 0
    1b58:	61 e0       	ldi	r22, 0x01	; 1
    1b5a:	ce 01       	movw	r24, r28
    1b5c:	01 96       	adiw	r24, 0x01	; 1
    1b5e:	0e 94 75 04 	call	0x8ea	; 0x8ea <screen_draw_numeral>
    1b62:	80 91 20 01 	lds	r24, 0x0120
    1b66:	44 e1       	ldi	r20, 0x14	; 20
    1b68:	50 e0       	ldi	r21, 0x00	; 0
    1b6a:	61 e0       	ldi	r22, 0x01	; 1
    1b6c:	81 5f       	subi	r24, 0xF1	; 241
    1b6e:	0e 94 b5 04 	call	0x96a	; 0x96a <screen_draw_number>
    1b72:	80 91 20 01 	lds	r24, 0x0120
    1b76:	48 e2       	ldi	r20, 0x28	; 40
    1b78:	50 e0       	ldi	r21, 0x00	; 0
    1b7a:	61 e0       	ldi	r22, 0x01	; 1
    1b7c:	8d 5d       	subi	r24, 0xDD	; 221
    1b7e:	0e 94 b5 04 	call	0x96a	; 0x96a <screen_draw_number>
    1b82:	80 91 20 01 	lds	r24, 0x0120
    1b86:	4c e3       	ldi	r20, 0x3C	; 60
    1b88:	50 e0       	ldi	r21, 0x00	; 0
    1b8a:	61 e0       	ldi	r22, 0x01	; 1
    1b8c:	89 5c       	subi	r24, 0xC9	; 201
    1b8e:	0e 94 b5 04 	call	0x96a	; 0x96a <screen_draw_number>
    1b92:	5f 98       	cbi	0x0b, 7	; 11
    1b94:	0e 94 f5 02 	call	0x5ea	; 0x5ea <screen_refresh>
    1b98:	0f 90       	pop	r0
    1b9a:	0f 90       	pop	r0
    1b9c:	0f 90       	pop	r0
    1b9e:	0f 90       	pop	r0
    1ba0:	0f 90       	pop	r0
    1ba2:	df 91       	pop	r29
    1ba4:	cf 91       	pop	r28
    1ba6:	1f 91       	pop	r17
    1ba8:	0f 91       	pop	r16
    1baa:	ff 90       	pop	r15
    1bac:	ef 90       	pop	r14
    1bae:	df 90       	pop	r13
    1bb0:	cf 90       	pop	r12
    1bb2:	bf 90       	pop	r11
    1bb4:	af 90       	pop	r10
    1bb6:	9f 90       	pop	r9
    1bb8:	8f 90       	pop	r8
    1bba:	7f 90       	pop	r7
    1bbc:	6f 90       	pop	r6
    1bbe:	08 95       	ret

00001bc0 <uart_stdio_init>:
    1bc0:	81 e1       	ldi	r24, 0x11	; 17
    1bc2:	91 e0       	ldi	r25, 0x01	; 1
    1bc4:	90 93 6c 07 	sts	0x076C, r25
    1bc8:	80 93 6b 07 	sts	0x076B, r24
    1bcc:	83 e0       	ldi	r24, 0x03	; 3
    1bce:	91 e0       	ldi	r25, 0x01	; 1
    1bd0:	90 93 6a 07 	sts	0x076A, r25
    1bd4:	80 93 69 07 	sts	0x0769, r24
    1bd8:	08 95       	ret

00001bda <reconfigure_tmp102s>:
    1bda:	80 e9       	ldi	r24, 0x90	; 144
    1bdc:	0e 94 1d 08 	call	0x103a	; 0x103a <tmp102_configure>
    1be0:	8f 3f       	cpi	r24, 0xFF	; 255
    1be2:	9f 40       	sbci	r25, 0x0F	; 15
    1be4:	d1 f3       	breq	.-12     	; 0x1bda <reconfigure_tmp102s>
    1be6:	80 e9       	ldi	r24, 0x90	; 144
    1be8:	0e 94 1d 08 	call	0x103a	; 0x103a <tmp102_configure>
    1bec:	8f 3f       	cpi	r24, 0xFF	; 255
    1bee:	9f 40       	sbci	r25, 0x0F	; 15
    1bf0:	d1 f3       	breq	.-12     	; 0x1be6 <reconfigure_tmp102s+0xc>
    1bf2:	82 e9       	ldi	r24, 0x92	; 146
    1bf4:	0e 94 1d 08 	call	0x103a	; 0x103a <tmp102_configure>
    1bf8:	8f 3f       	cpi	r24, 0xFF	; 255
    1bfa:	9f 40       	sbci	r25, 0x0F	; 15
    1bfc:	d1 f3       	breq	.-12     	; 0x1bf2 <reconfigure_tmp102s+0x18>
    1bfe:	82 e9       	ldi	r24, 0x92	; 146
    1c00:	0e 94 1d 08 	call	0x103a	; 0x103a <tmp102_configure>
    1c04:	8f 3f       	cpi	r24, 0xFF	; 255
    1c06:	9f 40       	sbci	r25, 0x0F	; 15
    1c08:	d1 f3       	breq	.-12     	; 0x1bfe <reconfigure_tmp102s+0x24>
    1c0a:	84 e9       	ldi	r24, 0x94	; 148
    1c0c:	0e 94 1d 08 	call	0x103a	; 0x103a <tmp102_configure>
    1c10:	8f 3f       	cpi	r24, 0xFF	; 255
    1c12:	9f 40       	sbci	r25, 0x0F	; 15
    1c14:	d1 f3       	breq	.-12     	; 0x1c0a <reconfigure_tmp102s+0x30>
    1c16:	84 e9       	ldi	r24, 0x94	; 148
    1c18:	0e 94 1d 08 	call	0x103a	; 0x103a <tmp102_configure>
    1c1c:	8f 3f       	cpi	r24, 0xFF	; 255
    1c1e:	9f 40       	sbci	r25, 0x0F	; 15
    1c20:	d1 f3       	breq	.-12     	; 0x1c16 <reconfigure_tmp102s+0x3c>
    1c22:	86 e9       	ldi	r24, 0x96	; 150
    1c24:	0e 94 1d 08 	call	0x103a	; 0x103a <tmp102_configure>
    1c28:	8f 3f       	cpi	r24, 0xFF	; 255
    1c2a:	9f 40       	sbci	r25, 0x0F	; 15
    1c2c:	d1 f3       	breq	.-12     	; 0x1c22 <reconfigure_tmp102s+0x48>
    1c2e:	86 e9       	ldi	r24, 0x96	; 150
    1c30:	0e 94 1d 08 	call	0x103a	; 0x103a <tmp102_configure>
    1c34:	8f 3f       	cpi	r24, 0xFF	; 255
    1c36:	9f 40       	sbci	r25, 0x0F	; 15
    1c38:	d1 f3       	breq	.-12     	; 0x1c2e <reconfigure_tmp102s+0x54>
    1c3a:	08 95       	ret

00001c3c <__vector_11>:
    1c3c:	1f 92       	push	r1
    1c3e:	0f 92       	push	r0
    1c40:	0f b6       	in	r0, 0x3f	; 63
    1c42:	0f 92       	push	r0
    1c44:	11 24       	eor	r1, r1
    1c46:	ef 92       	push	r14
    1c48:	ff 92       	push	r15
    1c4a:	0f 93       	push	r16
    1c4c:	1f 93       	push	r17
    1c4e:	2f 93       	push	r18
    1c50:	3f 93       	push	r19
    1c52:	4f 93       	push	r20
    1c54:	5f 93       	push	r21
    1c56:	6f 93       	push	r22
    1c58:	7f 93       	push	r23
    1c5a:	8f 93       	push	r24
    1c5c:	9f 93       	push	r25
    1c5e:	af 93       	push	r26
    1c60:	bf 93       	push	r27
    1c62:	cf 93       	push	r28
    1c64:	df 93       	push	r29
    1c66:	ef 93       	push	r30
    1c68:	ff 93       	push	r31
    1c6a:	20 91 01 01 	lds	r18, 0x0101
    1c6e:	80 91 da 01 	lds	r24, 0x01DA
    1c72:	90 91 db 01 	lds	r25, 0x01DB
    1c76:	82 0f       	add	r24, r18
    1c78:	91 1d       	adc	r25, r1
    1c7a:	90 93 db 01 	sts	0x01DB, r25
    1c7e:	80 93 da 01 	sts	0x01DA, r24
    1c82:	cc 97       	sbiw	r24, 0x3c	; 60
    1c84:	0c f4       	brge	.+2      	; 0x1c88 <__vector_11+0x4c>
    1c86:	6b c0       	rjmp	.+214    	; 0x1d5e <__vector_11+0x122>
    1c88:	10 92 db 01 	sts	0x01DB, r1
    1c8c:	10 92 da 01 	sts	0x01DA, r1
    1c90:	80 91 dc 01 	lds	r24, 0x01DC
    1c94:	90 91 dd 01 	lds	r25, 0x01DD
    1c98:	01 96       	adiw	r24, 0x01	; 1
    1c9a:	80 3a       	cpi	r24, 0xA0	; 160
    1c9c:	25 e0       	ldi	r18, 0x05	; 5
    1c9e:	92 07       	cpc	r25, r18
    1ca0:	29 f0       	breq	.+10     	; 0x1cac <__vector_11+0x70>
    1ca2:	90 93 dd 01 	sts	0x01DD, r25
    1ca6:	80 93 dc 01 	sts	0x01DC, r24
    1caa:	0d c0       	rjmp	.+26     	; 0x1cc6 <__vector_11+0x8a>
    1cac:	10 92 dd 01 	sts	0x01DD, r1
    1cb0:	10 92 dc 01 	sts	0x01DC, r1
    1cb4:	80 91 d8 01 	lds	r24, 0x01D8
    1cb8:	90 91 d9 01 	lds	r25, 0x01D9
    1cbc:	01 96       	adiw	r24, 0x01	; 1
    1cbe:	90 93 d9 01 	sts	0x01D9, r25
    1cc2:	80 93 d8 01 	sts	0x01D8, r24
    1cc6:	80 91 02 01 	lds	r24, 0x0102
    1cca:	88 23       	and	r24, r24
    1ccc:	09 f4       	brne	.+2      	; 0x1cd0 <__vector_11+0x94>
    1cce:	4d c0       	rjmp	.+154    	; 0x1d6a <__vector_11+0x12e>
    1cd0:	78 94       	sei
    1cd2:	5f 9a       	sbi	0x0b, 7	; 11
    1cd4:	81 ea       	ldi	r24, 0xA1	; 161
    1cd6:	90 e0       	ldi	r25, 0x00	; 0
    1cd8:	9f 93       	push	r25
    1cda:	8f 93       	push	r24
    1cdc:	0e 94 e2 18 	call	0x31c4	; 0x31c4 <printf_P>
    1ce0:	80 e9       	ldi	r24, 0x90	; 144
    1ce2:	0e 94 4d 08 	call	0x109a	; 0x109a <tmp102_readraw>
    1ce6:	7c 01       	movw	r14, r24
    1ce8:	0f 90       	pop	r0
    1cea:	0f 90       	pop	r0
    1cec:	82 e9       	ldi	r24, 0x92	; 146
    1cee:	0e 94 4d 08 	call	0x109a	; 0x109a <tmp102_readraw>
    1cf2:	ec 01       	movw	r28, r24
    1cf4:	cf 3f       	cpi	r28, 0xFF	; 255
    1cf6:	8f e0       	ldi	r24, 0x0F	; 15
    1cf8:	d8 07       	cpc	r29, r24
    1cfa:	c1 f3       	breq	.-16     	; 0x1cec <__vector_11+0xb0>
    1cfc:	84 e9       	ldi	r24, 0x94	; 148
    1cfe:	0e 94 4d 08 	call	0x109a	; 0x109a <tmp102_readraw>
    1d02:	8c 01       	movw	r16, r24
    1d04:	0f 3f       	cpi	r16, 0xFF	; 255
    1d06:	9f e0       	ldi	r25, 0x0F	; 15
    1d08:	19 07       	cpc	r17, r25
    1d0a:	c1 f3       	breq	.-16     	; 0x1cfc <__vector_11+0xc0>
    1d0c:	ff 92       	push	r15
    1d0e:	ef 92       	push	r14
    1d10:	2e e8       	ldi	r18, 0x8E	; 142
    1d12:	30 e0       	ldi	r19, 0x00	; 0
    1d14:	3f 93       	push	r19
    1d16:	2f 93       	push	r18
    1d18:	0e 94 e2 18 	call	0x31c4	; 0x31c4 <printf_P>
    1d1c:	df 93       	push	r29
    1d1e:	cf 93       	push	r28
    1d20:	2b e7       	ldi	r18, 0x7B	; 123
    1d22:	30 e0       	ldi	r19, 0x00	; 0
    1d24:	3f 93       	push	r19
    1d26:	2f 93       	push	r18
    1d28:	0e 94 e2 18 	call	0x31c4	; 0x31c4 <printf_P>
    1d2c:	1f 93       	push	r17
    1d2e:	0f 93       	push	r16
    1d30:	28 e6       	ldi	r18, 0x68	; 104
    1d32:	30 e0       	ldi	r19, 0x00	; 0
    1d34:	3f 93       	push	r19
    1d36:	2f 93       	push	r18
    1d38:	0e 94 e2 18 	call	0x31c4	; 0x31c4 <printf_P>
    1d3c:	a8 01       	movw	r20, r16
    1d3e:	be 01       	movw	r22, r28
    1d40:	c7 01       	movw	r24, r14
    1d42:	0e 94 32 07 	call	0xe64	; 0xe64 <data_log>
    1d46:	0e 94 a5 0a 	call	0x154a	; 0x154a <display_refresh>
    1d4a:	5f 98       	cbi	0x0b, 7	; 11
    1d4c:	8d b7       	in	r24, 0x3d	; 61
    1d4e:	9e b7       	in	r25, 0x3e	; 62
    1d50:	0c 96       	adiw	r24, 0x0c	; 12
    1d52:	0f b6       	in	r0, 0x3f	; 63
    1d54:	f8 94       	cli
    1d56:	9e bf       	out	0x3e, r25	; 62
    1d58:	0f be       	out	0x3f, r0	; 63
    1d5a:	8d bf       	out	0x3d, r24	; 61
    1d5c:	06 c0       	rjmp	.+12     	; 0x1d6a <__vector_11+0x12e>
    1d5e:	80 91 1f 01 	lds	r24, 0x011F
    1d62:	81 11       	cpse	r24, r1
    1d64:	02 c0       	rjmp	.+4      	; 0x1d6a <__vector_11+0x12e>
    1d66:	0e 94 a5 0a 	call	0x154a	; 0x154a <display_refresh>
    1d6a:	ff 91       	pop	r31
    1d6c:	ef 91       	pop	r30
    1d6e:	df 91       	pop	r29
    1d70:	cf 91       	pop	r28
    1d72:	bf 91       	pop	r27
    1d74:	af 91       	pop	r26
    1d76:	9f 91       	pop	r25
    1d78:	8f 91       	pop	r24
    1d7a:	7f 91       	pop	r23
    1d7c:	6f 91       	pop	r22
    1d7e:	5f 91       	pop	r21
    1d80:	4f 91       	pop	r20
    1d82:	3f 91       	pop	r19
    1d84:	2f 91       	pop	r18
    1d86:	1f 91       	pop	r17
    1d88:	0f 91       	pop	r16
    1d8a:	ff 90       	pop	r15
    1d8c:	ef 90       	pop	r14
    1d8e:	0f 90       	pop	r0
    1d90:	0f be       	out	0x3f, r0	; 63
    1d92:	0f 90       	pop	r0
    1d94:	1f 90       	pop	r1
    1d96:	18 95       	reti

00001d98 <__vector_18>:
    1d98:	1f 92       	push	r1
    1d9a:	0f 92       	push	r0
    1d9c:	0f b6       	in	r0, 0x3f	; 63
    1d9e:	0f 92       	push	r0
    1da0:	11 24       	eor	r1, r1
    1da2:	2f 93       	push	r18
    1da4:	3f 93       	push	r19
    1da6:	4f 93       	push	r20
    1da8:	5f 93       	push	r21
    1daa:	8f 93       	push	r24
    1dac:	9f 93       	push	r25
    1dae:	ef 93       	push	r30
    1db0:	ff 93       	push	r31
    1db2:	40 91 c0 00 	lds	r20, 0x00C0
    1db6:	50 91 c6 00 	lds	r21, 0x00C6
    1dba:	48 71       	andi	r20, 0x18	; 24
    1dbc:	80 91 e6 01 	lds	r24, 0x01E6
    1dc0:	90 e0       	ldi	r25, 0x00	; 0
    1dc2:	01 96       	adiw	r24, 0x01	; 1
    1dc4:	8f 73       	andi	r24, 0x3F	; 63
    1dc6:	99 27       	eor	r25, r25
    1dc8:	20 91 e5 01 	lds	r18, 0x01E5
    1dcc:	30 e0       	ldi	r19, 0x00	; 0
    1dce:	82 17       	cp	r24, r18
    1dd0:	93 07       	cpc	r25, r19
    1dd2:	39 f0       	breq	.+14     	; 0x1de2 <__vector_18+0x4a>
    1dd4:	80 93 e6 01 	sts	0x01E6, r24
    1dd8:	fc 01       	movw	r30, r24
    1dda:	e7 51       	subi	r30, 0x17	; 23
    1ddc:	fe 4f       	sbci	r31, 0xFE	; 254
    1dde:	50 83       	st	Z, r21
    1de0:	01 c0       	rjmp	.+2      	; 0x1de4 <__vector_18+0x4c>
    1de2:	42 e0       	ldi	r20, 0x02	; 2
    1de4:	40 93 e4 01 	sts	0x01E4, r20
    1de8:	ff 91       	pop	r31
    1dea:	ef 91       	pop	r30
    1dec:	9f 91       	pop	r25
    1dee:	8f 91       	pop	r24
    1df0:	5f 91       	pop	r21
    1df2:	4f 91       	pop	r20
    1df4:	3f 91       	pop	r19
    1df6:	2f 91       	pop	r18
    1df8:	0f 90       	pop	r0
    1dfa:	0f be       	out	0x3f, r0	; 63
    1dfc:	0f 90       	pop	r0
    1dfe:	1f 90       	pop	r1
    1e00:	18 95       	reti

00001e02 <__vector_19>:
    1e02:	1f 92       	push	r1
    1e04:	0f 92       	push	r0
    1e06:	0f b6       	in	r0, 0x3f	; 63
    1e08:	0f 92       	push	r0
    1e0a:	11 24       	eor	r1, r1
    1e0c:	8f 93       	push	r24
    1e0e:	9f 93       	push	r25
    1e10:	ef 93       	push	r30
    1e12:	ff 93       	push	r31
    1e14:	90 91 e8 01 	lds	r25, 0x01E8
    1e18:	80 91 e7 01 	lds	r24, 0x01E7
    1e1c:	98 17       	cp	r25, r24
    1e1e:	79 f0       	breq	.+30     	; 0x1e3e <__vector_19+0x3c>
    1e20:	80 91 e7 01 	lds	r24, 0x01E7
    1e24:	90 e0       	ldi	r25, 0x00	; 0
    1e26:	01 96       	adiw	r24, 0x01	; 1
    1e28:	8f 73       	andi	r24, 0x3F	; 63
    1e2a:	99 27       	eor	r25, r25
    1e2c:	80 93 e7 01 	sts	0x01E7, r24
    1e30:	fc 01       	movw	r30, r24
    1e32:	e7 5d       	subi	r30, 0xD7	; 215
    1e34:	fd 4f       	sbci	r31, 0xFD	; 253
    1e36:	80 81       	ld	r24, Z
    1e38:	80 93 c6 00 	sts	0x00C6, r24
    1e3c:	05 c0       	rjmp	.+10     	; 0x1e48 <__vector_19+0x46>
    1e3e:	80 91 c1 00 	lds	r24, 0x00C1
    1e42:	8f 7d       	andi	r24, 0xDF	; 223
    1e44:	80 93 c1 00 	sts	0x00C1, r24
    1e48:	ff 91       	pop	r31
    1e4a:	ef 91       	pop	r30
    1e4c:	9f 91       	pop	r25
    1e4e:	8f 91       	pop	r24
    1e50:	0f 90       	pop	r0
    1e52:	0f be       	out	0x3f, r0	; 63
    1e54:	0f 90       	pop	r0
    1e56:	1f 90       	pop	r1
    1e58:	18 95       	reti

00001e5a <uart0_init>:
    1e5a:	10 92 e8 01 	sts	0x01E8, r1
    1e5e:	10 92 e7 01 	sts	0x01E7, r1
    1e62:	10 92 e6 01 	sts	0x01E6, r1
    1e66:	10 92 e5 01 	sts	0x01E5, r1
    1e6a:	97 ff       	sbrs	r25, 7
    1e6c:	04 c0       	rjmp	.+8      	; 0x1e76 <uart0_init+0x1c>
    1e6e:	22 e0       	ldi	r18, 0x02	; 2
    1e70:	20 93 c0 00 	sts	0x00C0, r18
    1e74:	9f 77       	andi	r25, 0x7F	; 127
    1e76:	90 93 c5 00 	sts	0x00C5, r25
    1e7a:	80 93 c4 00 	sts	0x00C4, r24
    1e7e:	88 e9       	ldi	r24, 0x98	; 152
    1e80:	80 93 c1 00 	sts	0x00C1, r24
    1e84:	86 e0       	ldi	r24, 0x06	; 6
    1e86:	80 93 c2 00 	sts	0x00C2, r24
    1e8a:	08 95       	ret

00001e8c <uart0_getc>:
    1e8c:	90 91 e6 01 	lds	r25, 0x01E6
    1e90:	80 91 e5 01 	lds	r24, 0x01E5
    1e94:	98 17       	cp	r25, r24
    1e96:	a1 f0       	breq	.+40     	; 0x1ec0 <uart0_getc+0x34>
    1e98:	80 91 e5 01 	lds	r24, 0x01E5
    1e9c:	90 e0       	ldi	r25, 0x00	; 0
    1e9e:	01 96       	adiw	r24, 0x01	; 1
    1ea0:	8f 73       	andi	r24, 0x3F	; 63
    1ea2:	99 27       	eor	r25, r25
    1ea4:	80 93 e5 01 	sts	0x01E5, r24
    1ea8:	fc 01       	movw	r30, r24
    1eaa:	e7 51       	subi	r30, 0x17	; 23
    1eac:	fe 4f       	sbci	r31, 0xFE	; 254
    1eae:	20 81       	ld	r18, Z
    1eb0:	80 91 e4 01 	lds	r24, 0x01E4
    1eb4:	90 e0       	ldi	r25, 0x00	; 0
    1eb6:	98 2f       	mov	r25, r24
    1eb8:	88 27       	eor	r24, r24
    1eba:	82 0f       	add	r24, r18
    1ebc:	91 1d       	adc	r25, r1
    1ebe:	08 95       	ret
    1ec0:	80 e0       	ldi	r24, 0x00	; 0
    1ec2:	91 e0       	ldi	r25, 0x01	; 1
    1ec4:	08 95       	ret

00001ec6 <uart0_peek>:
    1ec6:	90 91 e6 01 	lds	r25, 0x01E6
    1eca:	80 91 e5 01 	lds	r24, 0x01E5
    1ece:	98 17       	cp	r25, r24
    1ed0:	89 f0       	breq	.+34     	; 0x1ef4 <uart0_peek+0x2e>
    1ed2:	e0 91 e5 01 	lds	r30, 0x01E5
    1ed6:	f0 e0       	ldi	r31, 0x00	; 0
    1ed8:	31 96       	adiw	r30, 0x01	; 1
    1eda:	ef 73       	andi	r30, 0x3F	; 63
    1edc:	ff 27       	eor	r31, r31
    1ede:	e7 51       	subi	r30, 0x17	; 23
    1ee0:	fe 4f       	sbci	r31, 0xFE	; 254
    1ee2:	20 81       	ld	r18, Z
    1ee4:	80 91 e4 01 	lds	r24, 0x01E4
    1ee8:	90 e0       	ldi	r25, 0x00	; 0
    1eea:	98 2f       	mov	r25, r24
    1eec:	88 27       	eor	r24, r24
    1eee:	82 0f       	add	r24, r18
    1ef0:	91 1d       	adc	r25, r1
    1ef2:	08 95       	ret
    1ef4:	80 e0       	ldi	r24, 0x00	; 0
    1ef6:	91 e0       	ldi	r25, 0x01	; 1
    1ef8:	08 95       	ret

00001efa <uart0_putc>:
    1efa:	20 91 e8 01 	lds	r18, 0x01E8
    1efe:	30 e0       	ldi	r19, 0x00	; 0
    1f00:	2f 5f       	subi	r18, 0xFF	; 255
    1f02:	3f 4f       	sbci	r19, 0xFF	; 255
    1f04:	2f 73       	andi	r18, 0x3F	; 63
    1f06:	33 27       	eor	r19, r19
    1f08:	40 91 e7 01 	lds	r20, 0x01E7
    1f0c:	50 e0       	ldi	r21, 0x00	; 0
    1f0e:	24 17       	cp	r18, r20
    1f10:	35 07       	cpc	r19, r21
    1f12:	d1 f3       	breq	.-12     	; 0x1f08 <uart0_putc+0xe>
    1f14:	f9 01       	movw	r30, r18
    1f16:	e7 5d       	subi	r30, 0xD7	; 215
    1f18:	fd 4f       	sbci	r31, 0xFD	; 253
    1f1a:	80 83       	st	Z, r24
    1f1c:	20 93 e8 01 	sts	0x01E8, r18
    1f20:	80 91 c1 00 	lds	r24, 0x00C1
    1f24:	80 62       	ori	r24, 0x20	; 32
    1f26:	80 93 c1 00 	sts	0x00C1, r24
    1f2a:	08 95       	ret

00001f2c <uart0_puts>:
    1f2c:	cf 93       	push	r28
    1f2e:	df 93       	push	r29
    1f30:	ec 01       	movw	r28, r24
    1f32:	89 91       	ld	r24, Y+
    1f34:	88 23       	and	r24, r24
    1f36:	19 f0       	breq	.+6      	; 0x1f3e <uart0_puts+0x12>
    1f38:	0e 94 7d 0f 	call	0x1efa	; 0x1efa <uart0_putc>
    1f3c:	fa cf       	rjmp	.-12     	; 0x1f32 <uart0_puts+0x6>
    1f3e:	df 91       	pop	r29
    1f40:	cf 91       	pop	r28
    1f42:	08 95       	ret

00001f44 <uart0_puts_p>:
    1f44:	cf 93       	push	r28
    1f46:	df 93       	push	r29
    1f48:	fc 01       	movw	r30, r24
    1f4a:	84 91       	lpm	r24, Z
    1f4c:	ef 01       	movw	r28, r30
    1f4e:	21 96       	adiw	r28, 0x01	; 1
    1f50:	88 23       	and	r24, r24
    1f52:	21 f0       	breq	.+8      	; 0x1f5c <uart0_puts_p+0x18>
    1f54:	0e 94 7d 0f 	call	0x1efa	; 0x1efa <uart0_putc>
    1f58:	fe 01       	movw	r30, r28
    1f5a:	f7 cf       	rjmp	.-18     	; 0x1f4a <uart0_puts_p+0x6>
    1f5c:	df 91       	pop	r29
    1f5e:	cf 91       	pop	r28
    1f60:	08 95       	ret

00001f62 <uart0_available>:
    1f62:	80 91 e6 01 	lds	r24, 0x01E6
    1f66:	20 91 e5 01 	lds	r18, 0x01E5
    1f6a:	90 e0       	ldi	r25, 0x00	; 0
    1f6c:	cf 96       	adiw	r24, 0x3f	; 63
    1f6e:	82 1b       	sub	r24, r18
    1f70:	91 09       	sbc	r25, r1
    1f72:	6f e3       	ldi	r22, 0x3F	; 63
    1f74:	70 e0       	ldi	r23, 0x00	; 0
    1f76:	0e 94 63 17 	call	0x2ec6	; 0x2ec6 <__divmodhi4>
    1f7a:	08 95       	ret

00001f7c <uart0_flush>:
    1f7c:	80 91 e5 01 	lds	r24, 0x01E5
    1f80:	80 93 e6 01 	sts	0x01E6, r24
    1f84:	08 95       	ret

00001f86 <main>:
    1f86:	cf 93       	push	r28
    1f88:	df 93       	push	r29
    1f8a:	00 d0       	rcall	.+0      	; 0x1f8c <main+0x6>
    1f8c:	00 d0       	rcall	.+0      	; 0x1f8e <main+0x8>
    1f8e:	cd b7       	in	r28, 0x3d	; 61
    1f90:	de b7       	in	r29, 0x3e	; 62
    1f92:	8e ee       	ldi	r24, 0xEE	; 238
    1f94:	84 b9       	out	0x04, r24	; 4
    1f96:	80 ef       	ldi	r24, 0xF0	; 240
    1f98:	87 b9       	out	0x07, r24	; 7
    1f9a:	8e ef       	ldi	r24, 0xFE	; 254
    1f9c:	8a b9       	out	0x0a, r24	; 10
    1f9e:	8f e0       	ldi	r24, 0x0F	; 15
    1fa0:	88 b9       	out	0x08, r24	; 8
    1fa2:	80 e4       	ldi	r24, 0x40	; 64
    1fa4:	8b b9       	out	0x0b, r24	; 11
    1fa6:	81 e0       	ldi	r24, 0x01	; 1
    1fa8:	85 b9       	out	0x05, r24	; 5
    1faa:	80 e0       	ldi	r24, 0x00	; 0
    1fac:	90 e8       	ldi	r25, 0x80	; 128
    1fae:	90 93 89 00 	sts	0x0089, r25
    1fb2:	80 93 88 00 	sts	0x0088, r24
    1fb6:	80 91 81 00 	lds	r24, 0x0081
    1fba:	88 60       	ori	r24, 0x08	; 8
    1fbc:	80 93 81 00 	sts	0x0081, r24
    1fc0:	80 91 6f 00 	lds	r24, 0x006F
    1fc4:	82 60       	ori	r24, 0x02	; 2
    1fc6:	80 93 6f 00 	sts	0x006F, r24
    1fca:	80 91 81 00 	lds	r24, 0x0081
    1fce:	84 60       	ori	r24, 0x04	; 4
    1fd0:	80 93 81 00 	sts	0x0081, r24
    1fd4:	8c e0       	ldi	r24, 0x0C	; 12
    1fd6:	90 e0       	ldi	r25, 0x00	; 0
    1fd8:	0e 94 2d 0f 	call	0x1e5a	; 0x1e5a <uart0_init>
    1fdc:	0e 94 e0 0d 	call	0x1bc0	; 0x1bc0 <uart_stdio_init>
    1fe0:	78 94       	sei
    1fe2:	5f 9a       	sbi	0x0b, 7	; 11
    1fe4:	88 e5       	ldi	r24, 0x58	; 88
    1fe6:	92 e0       	ldi	r25, 0x02	; 2
    1fe8:	9f 93       	push	r25
    1fea:	8f 93       	push	r24
    1fec:	0e 94 e2 18 	call	0x31c4	; 0x31c4 <printf_P>
    1ff0:	86 e4       	ldi	r24, 0x46	; 70
    1ff2:	92 e0       	ldi	r25, 0x02	; 2
    1ff4:	9f 93       	push	r25
    1ff6:	8f 93       	push	r24
    1ff8:	0e 94 e2 18 	call	0x31c4	; 0x31c4 <printf_P>
    1ffc:	0e 94 9d 05 	call	0xb3a	; 0xb3a <eeprom_reset>
    2000:	84 e3       	ldi	r24, 0x34	; 52
    2002:	92 e0       	ldi	r25, 0x02	; 2
    2004:	9f 93       	push	r25
    2006:	8f 93       	push	r24
    2008:	0e 94 e2 18 	call	0x31c4	; 0x31c4 <printf_P>
    200c:	0e 94 da 07 	call	0xfb4	; 0xfb4 <i2cInit>
    2010:	89 ef       	ldi	r24, 0xF9	; 249
    2012:	91 e0       	ldi	r25, 0x01	; 1
    2014:	9f 93       	push	r25
    2016:	8f 93       	push	r24
    2018:	0e 94 e2 18 	call	0x31c4	; 0x31c4 <printf_P>
    201c:	0e 94 ed 0d 	call	0x1bda	; 0x1bda <reconfigure_tmp102s>
    2020:	81 ee       	ldi	r24, 0xE1	; 225
    2022:	91 e0       	ldi	r25, 0x01	; 1
    2024:	9f 93       	push	r25
    2026:	8f 93       	push	r24
    2028:	0e 94 e2 18 	call	0x31c4	; 0x31c4 <printf_P>
    202c:	0f b6       	in	r0, 0x3f	; 63
    202e:	f8 94       	cli
    2030:	de bf       	out	0x3e, r29	; 62
    2032:	0f be       	out	0x3f, r0	; 63
    2034:	cd bf       	out	0x3d, r28	; 61
    2036:	00 91 e3 01 	lds	r16, 0x01E3
    203a:	10 e0       	ldi	r17, 0x00	; 0
    203c:	10 2f       	mov	r17, r16
    203e:	00 27       	eor	r16, r16
    2040:	80 91 e2 01 	lds	r24, 0x01E2
    2044:	08 2b       	or	r16, r24
    2046:	c8 01       	movw	r24, r16
    2048:	0e 94 fb 05 	call	0xbf6	; 0xbf6 <eeprom_readbyte>
    204c:	8f 30       	cpi	r24, 0x0F	; 15
    204e:	41 f0       	breq	.+16     	; 0x2060 <main+0xda>
    2050:	80 91 e2 01 	lds	r24, 0x01E2
    2054:	8a 3e       	cpi	r24, 0xEA	; 234
    2056:	18 f5       	brcc	.+70     	; 0x209e <main+0x118>
    2058:	8a 5f       	subi	r24, 0xFA	; 250
    205a:	80 93 e2 01 	sts	0x01E2, r24
    205e:	eb cf       	rjmp	.-42     	; 0x2036 <main+0xb0>
    2060:	c8 01       	movw	r24, r16
    2062:	01 96       	adiw	r24, 0x01	; 1
    2064:	0e 94 fb 05 	call	0xbf6	; 0xbf6 <eeprom_readbyte>
    2068:	8f 3f       	cpi	r24, 0xFF	; 255
    206a:	91 f7       	brne	.-28     	; 0x2050 <main+0xca>
    206c:	c8 01       	movw	r24, r16
    206e:	02 96       	adiw	r24, 0x02	; 2
    2070:	0e 94 fb 05 	call	0xbf6	; 0xbf6 <eeprom_readbyte>
    2074:	8f 30       	cpi	r24, 0x0F	; 15
    2076:	61 f7       	brne	.-40     	; 0x2050 <main+0xca>
    2078:	c8 01       	movw	r24, r16
    207a:	03 96       	adiw	r24, 0x03	; 3
    207c:	0e 94 fb 05 	call	0xbf6	; 0xbf6 <eeprom_readbyte>
    2080:	8f 3f       	cpi	r24, 0xFF	; 255
    2082:	31 f7       	brne	.-52     	; 0x2050 <main+0xca>
    2084:	c8 01       	movw	r24, r16
    2086:	04 96       	adiw	r24, 0x04	; 4
    2088:	0e 94 fb 05 	call	0xbf6	; 0xbf6 <eeprom_readbyte>
    208c:	8f 30       	cpi	r24, 0x0F	; 15
    208e:	01 f7       	brne	.-64     	; 0x2050 <main+0xca>
    2090:	c8 01       	movw	r24, r16
    2092:	05 96       	adiw	r24, 0x05	; 5
    2094:	0e 94 fb 05 	call	0xbf6	; 0xbf6 <eeprom_readbyte>
    2098:	8f 3f       	cpi	r24, 0xFF	; 255
    209a:	d1 f6       	brne	.-76     	; 0x2050 <main+0xca>
    209c:	11 c0       	rjmp	.+34     	; 0x20c0 <main+0x13a>
    209e:	10 92 e2 01 	sts	0x01E2, r1
    20a2:	80 91 e3 01 	lds	r24, 0x01E3
    20a6:	8f 5f       	subi	r24, 0xFF	; 255
    20a8:	80 93 e3 01 	sts	0x01E3, r24
    20ac:	81 11       	cpse	r24, r1
    20ae:	c3 cf       	rjmp	.-122    	; 0x2036 <main+0xb0>
    20b0:	82 ec       	ldi	r24, 0xC2	; 194
    20b2:	91 e0       	ldi	r25, 0x01	; 1
    20b4:	9f 93       	push	r25
    20b6:	8f 93       	push	r24
    20b8:	0e 94 e2 18 	call	0x31c4	; 0x31c4 <printf_P>
    20bc:	0f 90       	pop	r0
    20be:	0f 90       	pop	r0
    20c0:	80 91 e2 01 	lds	r24, 0x01E2
    20c4:	1f 92       	push	r1
    20c6:	8f 93       	push	r24
    20c8:	80 91 e3 01 	lds	r24, 0x01E3
    20cc:	1f 92       	push	r1
    20ce:	8f 93       	push	r24
    20d0:	8a ea       	ldi	r24, 0xAA	; 170
    20d2:	91 e0       	ldi	r25, 0x01	; 1
    20d4:	9f 93       	push	r25
    20d6:	8f 93       	push	r24
    20d8:	0e 94 e2 18 	call	0x31c4	; 0x31c4 <printf_P>
    20dc:	80 91 e3 01 	lds	r24, 0x01E3
    20e0:	0e 94 e7 06 	call	0xdce	; 0xdce <data_load_page>
    20e4:	0e 94 a5 0a 	call	0x154a	; 0x154a <display_refresh>
    20e8:	5f 98       	cbi	0x0b, 7	; 11
    20ea:	0f 90       	pop	r0
    20ec:	0f 90       	pop	r0
    20ee:	0f 90       	pop	r0
    20f0:	0f 90       	pop	r0
    20f2:	0f 90       	pop	r0
    20f4:	0f 90       	pop	r0
    20f6:	de 01       	movw	r26, r28
    20f8:	11 96       	adiw	r26, 0x01	; 1
    20fa:	bc 83       	std	Y+4, r27	; 0x04
    20fc:	ab 83       	std	Y+3, r26	; 0x03
    20fe:	fa e1       	ldi	r31, 0x1A	; 26
    2100:	4f 2e       	mov	r4, r31
    2102:	f1 e0       	ldi	r31, 0x01	; 1
    2104:	5f 2e       	mov	r5, r31
    2106:	a8 e1       	ldi	r26, 0x18	; 24
    2108:	6a 2e       	mov	r6, r26
    210a:	a1 e0       	ldi	r26, 0x01	; 1
    210c:	7a 2e       	mov	r7, r26
    210e:	b7 e9       	ldi	r27, 0x97	; 151
    2110:	cb 2e       	mov	r12, r27
    2112:	b1 e0       	ldi	r27, 0x01	; 1
    2114:	db 2e       	mov	r13, r27
    2116:	15 e9       	ldi	r17, 0x95	; 149
    2118:	a1 2e       	mov	r10, r17
    211a:	11 e0       	ldi	r17, 0x01	; 1
    211c:	b1 2e       	mov	r11, r17
    211e:	0d ed       	ldi	r16, 0xDD	; 221
    2120:	10 e0       	ldi	r17, 0x00	; 0
    2122:	ec e3       	ldi	r30, 0x3C	; 60
    2124:	8e 2e       	mov	r8, r30
    2126:	91 2c       	mov	r9, r1
    2128:	0e 94 46 0f 	call	0x1e8c	; 0x1e8c <uart0_getc>
    212c:	90 fd       	sbrc	r25, 0
    212e:	24 c1       	rjmp	.+584    	; 0x2378 <main+0x3f2>
    2130:	8a 37       	cpi	r24, 0x7A	; 122
    2132:	51 f5       	brne	.+84     	; 0x2188 <main+0x202>
    2134:	8d e9       	ldi	r24, 0x9D	; 157
    2136:	91 e0       	ldi	r25, 0x01	; 1
    2138:	9f 93       	push	r25
    213a:	8f 93       	push	r24
    213c:	0e 94 e2 18 	call	0x31c4	; 0x31c4 <printf_P>
    2140:	0f 90       	pop	r0
    2142:	0f 90       	pop	r0
    2144:	31 2c       	mov	r3, r1
    2146:	76 e0       	ldi	r23, 0x06	; 6
    2148:	27 2e       	mov	r2, r23
    214a:	e3 2d       	mov	r30, r3
    214c:	f0 e0       	ldi	r31, 0x00	; 0
    214e:	e7 59       	subi	r30, 0x97	; 151
    2150:	f9 4f       	sbci	r31, 0xF9	; 249
    2152:	80 81       	ld	r24, Z
    2154:	1f 92       	push	r1
    2156:	8f 93       	push	r24
    2158:	df 92       	push	r13
    215a:	cf 92       	push	r12
    215c:	0e 94 e2 18 	call	0x31c4	; 0x31c4 <printf_P>
    2160:	33 94       	inc	r3
    2162:	83 2d       	mov	r24, r3
    2164:	62 2d       	mov	r22, r2
    2166:	0e 94 35 17 	call	0x2e6a	; 0x2e6a <__udivmodqi4>
    216a:	0f 90       	pop	r0
    216c:	0f 90       	pop	r0
    216e:	0f 90       	pop	r0
    2170:	0f 90       	pop	r0
    2172:	91 11       	cpse	r25, r1
    2174:	06 c0       	rjmp	.+12     	; 0x2182 <main+0x1fc>
    2176:	bf 92       	push	r11
    2178:	af 92       	push	r10
    217a:	0e 94 e2 18 	call	0x31c4	; 0x31c4 <printf_P>
    217e:	0f 90       	pop	r0
    2180:	0f 90       	pop	r0
    2182:	31 10       	cpse	r3, r1
    2184:	e2 cf       	rjmp	.-60     	; 0x214a <main+0x1c4>
    2186:	f8 c0       	rjmp	.+496    	; 0x2378 <main+0x3f2>
    2188:	89 37       	cpi	r24, 0x79	; 121
    218a:	d9 f4       	brne	.+54     	; 0x21c2 <main+0x23c>
    218c:	8f e7       	ldi	r24, 0x7F	; 127
    218e:	91 e0       	ldi	r25, 0x01	; 1
    2190:	9f 93       	push	r25
    2192:	8f 93       	push	r24
    2194:	0e 94 e2 18 	call	0x31c4	; 0x31c4 <printf_P>
    2198:	81 e0       	ldi	r24, 0x01	; 1
    219a:	91 e0       	ldi	r25, 0x01	; 1
    219c:	9f 93       	push	r25
    219e:	8f 93       	push	r24
    21a0:	80 ed       	ldi	r24, 0xD0	; 208
    21a2:	91 e0       	ldi	r25, 0x01	; 1
    21a4:	9f 93       	push	r25
    21a6:	8f 93       	push	r24
    21a8:	0e 94 04 19 	call	0x3208	; 0x3208 <scanf>
    21ac:	80 91 01 01 	lds	r24, 0x0101
    21b0:	1f 92       	push	r1
    21b2:	8f 93       	push	r24
    21b4:	8b e7       	ldi	r24, 0x7B	; 123
    21b6:	91 e0       	ldi	r25, 0x01	; 1
    21b8:	9f 93       	push	r25
    21ba:	8f 93       	push	r24
    21bc:	0e 94 e2 18 	call	0x31c4	; 0x31c4 <printf_P>
    21c0:	b8 c0       	rjmp	.+368    	; 0x2332 <main+0x3ac>
    21c2:	84 37       	cpi	r24, 0x74	; 116
    21c4:	29 f5       	brne	.+74     	; 0x2210 <main+0x28a>
    21c6:	1a 82       	std	Y+2, r1	; 0x02
    21c8:	19 82       	std	Y+1, r1	; 0x01
    21ca:	83 e6       	ldi	r24, 0x63	; 99
    21cc:	91 e0       	ldi	r25, 0x01	; 1
    21ce:	9f 93       	push	r25
    21d0:	8f 93       	push	r24
    21d2:	0e 94 e2 18 	call	0x31c4	; 0x31c4 <printf_P>
    21d6:	ce 01       	movw	r24, r28
    21d8:	01 96       	adiw	r24, 0x01	; 1
    21da:	9f 93       	push	r25
    21dc:	8f 93       	push	r24
    21de:	83 ed       	ldi	r24, 0xD3	; 211
    21e0:	91 e0       	ldi	r25, 0x01	; 1
    21e2:	9f 93       	push	r25
    21e4:	8f 93       	push	r24
    21e6:	0e 94 04 19 	call	0x3208	; 0x3208 <scanf>
    21ea:	8a 81       	ldd	r24, Y+2	; 0x02
    21ec:	8f 93       	push	r24
    21ee:	89 81       	ldd	r24, Y+1	; 0x01
    21f0:	8f 93       	push	r24
    21f2:	8d e5       	ldi	r24, 0x5D	; 93
    21f4:	91 e0       	ldi	r25, 0x01	; 1
    21f6:	9f 93       	push	r25
    21f8:	8f 93       	push	r24
    21fa:	0e 94 e2 18 	call	0x31c4	; 0x31c4 <printf_P>
    21fe:	0f b6       	in	r0, 0x3f	; 63
    2200:	f8 94       	cli
    2202:	de bf       	out	0x3e, r29	; 62
    2204:	0f be       	out	0x3f, r0	; 63
    2206:	cd bf       	out	0x3d, r28	; 61
    2208:	89 81       	ldd	r24, Y+1	; 0x01
    220a:	0e 94 4d 08 	call	0x109a	; 0x109a <tmp102_readraw>
    220e:	fc cf       	rjmp	.-8      	; 0x2208 <main+0x282>
    2210:	8e 36       	cpi	r24, 0x6E	; 110
    2212:	f9 f4       	brne	.+62     	; 0x2252 <main+0x2cc>
    2214:	8e e4       	ldi	r24, 0x4E	; 78
    2216:	91 e0       	ldi	r25, 0x01	; 1
    2218:	9f 93       	push	r25
    221a:	8f 93       	push	r24
    221c:	0e 94 e2 18 	call	0x31c4	; 0x31c4 <printf_P>
    2220:	83 ee       	ldi	r24, 0xE3	; 227
    2222:	91 e0       	ldi	r25, 0x01	; 1
    2224:	9f 93       	push	r25
    2226:	8f 93       	push	r24
    2228:	83 ed       	ldi	r24, 0xD3	; 211
    222a:	91 e0       	ldi	r25, 0x01	; 1
    222c:	9f 93       	push	r25
    222e:	8f 93       	push	r24
    2230:	0e 94 04 19 	call	0x3208	; 0x3208 <scanf>
    2234:	80 91 e3 01 	lds	r24, 0x01E3
    2238:	1f 92       	push	r1
    223a:	8f 93       	push	r24
    223c:	88 e4       	ldi	r24, 0x48	; 72
    223e:	91 e0       	ldi	r25, 0x01	; 1
    2240:	9f 93       	push	r25
    2242:	8f 93       	push	r24
    2244:	0e 94 e2 18 	call	0x31c4	; 0x31c4 <printf_P>
    2248:	0e 94 d9 06 	call	0xdb2	; 0xdb2 <data_reset_cache>
    224c:	0e 94 d3 06 	call	0xda6	; 0xda6 <data_flush_cache>
    2250:	70 c0       	rjmp	.+224    	; 0x2332 <main+0x3ac>
    2252:	88 37       	cpi	r24, 0x78	; 120
    2254:	49 f4       	brne	.+18     	; 0x2268 <main+0x2e2>
    2256:	87 e3       	ldi	r24, 0x37	; 55
    2258:	91 e0       	ldi	r25, 0x01	; 1
    225a:	9f 93       	push	r25
    225c:	8f 93       	push	r24
    225e:	0e 94 e2 18 	call	0x31c4	; 0x31c4 <printf_P>
    2262:	0e 94 d9 06 	call	0xdb2	; 0xdb2 <data_reset_cache>
    2266:	86 c0       	rjmp	.+268    	; 0x2374 <main+0x3ee>
    2268:	8d 36       	cpi	r24, 0x6D	; 109
    226a:	09 f0       	breq	.+2      	; 0x226e <main+0x2e8>
    226c:	43 c0       	rjmp	.+134    	; 0x22f4 <main+0x36e>
    226e:	88 e2       	ldi	r24, 0x28	; 40
    2270:	91 e0       	ldi	r25, 0x01	; 1
    2272:	9f 93       	push	r25
    2274:	8f 93       	push	r24
    2276:	0e 94 e2 18 	call	0x31c4	; 0x31c4 <printf_P>
    227a:	9c 81       	ldd	r25, Y+4	; 0x04
    227c:	9f 93       	push	r25
    227e:	ab 81       	ldd	r26, Y+3	; 0x03
    2280:	af 93       	push	r26
    2282:	83 ed       	ldi	r24, 0xD3	; 211
    2284:	91 e0       	ldi	r25, 0x01	; 1
    2286:	9f 93       	push	r25
    2288:	8f 93       	push	r24
    228a:	0e 94 04 19 	call	0x3208	; 0x3208 <scanf>
    228e:	8a 81       	ldd	r24, Y+2	; 0x02
    2290:	8f 93       	push	r24
    2292:	89 81       	ldd	r24, Y+1	; 0x01
    2294:	8f 93       	push	r24
    2296:	82 e2       	ldi	r24, 0x22	; 34
    2298:	91 e0       	ldi	r25, 0x01	; 1
    229a:	9f 93       	push	r25
    229c:	8f 93       	push	r24
    229e:	0e 94 e2 18 	call	0x31c4	; 0x31c4 <printf_P>
    22a2:	80 e2       	ldi	r24, 0x20	; 32
    22a4:	91 e0       	ldi	r25, 0x01	; 1
    22a6:	9f 93       	push	r25
    22a8:	8f 93       	push	r24
    22aa:	0e 94 e2 18 	call	0x31c4	; 0x31c4 <printf_P>
    22ae:	0f b6       	in	r0, 0x3f	; 63
    22b0:	f8 94       	cli
    22b2:	de bf       	out	0x3e, r29	; 62
    22b4:	0f be       	out	0x3f, r0	; 63
    22b6:	cd bf       	out	0x3d, r28	; 61
    22b8:	31 2c       	mov	r3, r1
    22ba:	f9 80       	ldd	r15, Y+1	; 0x01
    22bc:	e1 2c       	mov	r14, r1
    22be:	c7 01       	movw	r24, r14
    22c0:	83 29       	or	r24, r3
    22c2:	0e 94 fb 05 	call	0xbf6	; 0xbf6 <eeprom_readbyte>
    22c6:	1f 92       	push	r1
    22c8:	8f 93       	push	r24
    22ca:	5f 92       	push	r5
    22cc:	4f 92       	push	r4
    22ce:	0e 94 e2 18 	call	0x31c4	; 0x31c4 <printf_P>
    22d2:	33 94       	inc	r3
    22d4:	83 2d       	mov	r24, r3
    22d6:	8f 70       	andi	r24, 0x0F	; 15
    22d8:	0f 90       	pop	r0
    22da:	0f 90       	pop	r0
    22dc:	0f 90       	pop	r0
    22de:	0f 90       	pop	r0
    22e0:	61 f7       	brne	.-40     	; 0x22ba <main+0x334>
    22e2:	7f 92       	push	r7
    22e4:	6f 92       	push	r6
    22e6:	0e 94 e2 18 	call	0x31c4	; 0x31c4 <printf_P>
    22ea:	0f 90       	pop	r0
    22ec:	0f 90       	pop	r0
    22ee:	31 10       	cpse	r3, r1
    22f0:	e4 cf       	rjmp	.-56     	; 0x22ba <main+0x334>
    22f2:	42 c0       	rjmp	.+132    	; 0x2378 <main+0x3f2>
    22f4:	83 36       	cpi	r24, 0x63	; 99
    22f6:	19 f5       	brne	.+70     	; 0x233e <main+0x3b8>
    22f8:	80 91 dc 01 	lds	r24, 0x01DC
    22fc:	90 91 dd 01 	lds	r25, 0x01DD
    2300:	20 91 db 01 	lds	r18, 0x01DB
    2304:	2f 93       	push	r18
    2306:	20 91 da 01 	lds	r18, 0x01DA
    230a:	2f 93       	push	r18
    230c:	b4 01       	movw	r22, r8
    230e:	0e 94 4f 17 	call	0x2e9e	; 0x2e9e <__udivmodhi4>
    2312:	9f 93       	push	r25
    2314:	8f 93       	push	r24
    2316:	7f 93       	push	r23
    2318:	6f 93       	push	r22
    231a:	80 91 d9 01 	lds	r24, 0x01D9
    231e:	8f 93       	push	r24
    2320:	80 91 d8 01 	lds	r24, 0x01D8
    2324:	8f 93       	push	r24
    2326:	84 ef       	ldi	r24, 0xF4	; 244
    2328:	90 e0       	ldi	r25, 0x00	; 0
    232a:	9f 93       	push	r25
    232c:	8f 93       	push	r24
    232e:	0e 94 e2 18 	call	0x31c4	; 0x31c4 <printf_P>
    2332:	0f b6       	in	r0, 0x3f	; 63
    2334:	f8 94       	cli
    2336:	de bf       	out	0x3e, r29	; 62
    2338:	0f be       	out	0x3f, r0	; 63
    233a:	cd bf       	out	0x3d, r28	; 61
    233c:	1d c0       	rjmp	.+58     	; 0x2378 <main+0x3f2>
    233e:	81 37       	cpi	r24, 0x71	; 113
    2340:	41 f4       	brne	.+16     	; 0x2352 <main+0x3cc>
    2342:	1f 93       	push	r17
    2344:	0f 93       	push	r16
    2346:	0e 94 e2 18 	call	0x31c4	; 0x31c4 <printf_P>
    234a:	81 e0       	ldi	r24, 0x01	; 1
    234c:	80 93 02 01 	sts	0x0102, r24
    2350:	11 c0       	rjmp	.+34     	; 0x2374 <main+0x3ee>
    2352:	81 36       	cpi	r24, 0x61	; 97
    2354:	49 f4       	brne	.+18     	; 0x2368 <main+0x3e2>
    2356:	a2 ec       	ldi	r26, 0xC2	; 194
    2358:	b0 e0       	ldi	r27, 0x00	; 0
    235a:	bf 93       	push	r27
    235c:	af 93       	push	r26
    235e:	0e 94 e2 18 	call	0x31c4	; 0x31c4 <printf_P>
    2362:	10 92 02 01 	sts	0x0102, r1
    2366:	06 c0       	rjmp	.+12     	; 0x2374 <main+0x3ee>
    2368:	a0 ec       	ldi	r26, 0xC0	; 192
    236a:	b0 e0       	ldi	r27, 0x00	; 0
    236c:	bf 93       	push	r27
    236e:	af 93       	push	r26
    2370:	0e 94 e2 18 	call	0x31c4	; 0x31c4 <printf_P>
    2374:	0f 90       	pop	r0
    2376:	0f 90       	pop	r0
    2378:	26 b0       	in	r2, 0x06	; 6
    237a:	80 91 00 01 	lds	r24, 0x0100
    237e:	28 26       	eor	r2, r24
    2380:	82 2d       	mov	r24, r2
    2382:	8f 70       	andi	r24, 0x0F	; 15
    2384:	38 2e       	mov	r3, r24
    2386:	09 f4       	brne	.+2      	; 0x238a <main+0x404>
    2388:	cf ce       	rjmp	.-610    	; 0x2128 <main+0x1a2>
    238a:	86 b1       	in	r24, 0x06	; 6
    238c:	80 93 00 01 	sts	0x0100, r24
    2390:	20 fe       	sbrs	r2, 0
    2392:	07 c0       	rjmp	.+14     	; 0x23a2 <main+0x41c>
    2394:	02 e0       	ldi	r16, 0x02	; 2
    2396:	2f e0       	ldi	r18, 0x0F	; 15
    2398:	4f e0       	ldi	r20, 0x0F	; 15
    239a:	61 e0       	ldi	r22, 0x01	; 1
    239c:	81 e0       	ldi	r24, 0x01	; 1
    239e:	0e 94 5e 03 	call	0x6bc	; 0x6bc <screen_draw_rect>
    23a2:	21 fe       	sbrs	r2, 1
    23a4:	07 c0       	rjmp	.+14     	; 0x23b4 <main+0x42e>
    23a6:	02 e0       	ldi	r16, 0x02	; 2
    23a8:	2e e1       	ldi	r18, 0x1E	; 30
    23aa:	4f e0       	ldi	r20, 0x0F	; 15
    23ac:	60 e1       	ldi	r22, 0x10	; 16
    23ae:	81 e0       	ldi	r24, 0x01	; 1
    23b0:	0e 94 5e 03 	call	0x6bc	; 0x6bc <screen_draw_rect>
    23b4:	22 fe       	sbrs	r2, 2
    23b6:	07 c0       	rjmp	.+14     	; 0x23c6 <main+0x440>
    23b8:	02 e0       	ldi	r16, 0x02	; 2
    23ba:	2f e2       	ldi	r18, 0x2F	; 47
    23bc:	4f e0       	ldi	r20, 0x0F	; 15
    23be:	61 e2       	ldi	r22, 0x21	; 33
    23c0:	81 e0       	ldi	r24, 0x01	; 1
    23c2:	0e 94 5e 03 	call	0x6bc	; 0x6bc <screen_draw_rect>
    23c6:	23 fe       	sbrs	r2, 3
    23c8:	07 c0       	rjmp	.+14     	; 0x23d8 <main+0x452>
    23ca:	02 e0       	ldi	r16, 0x02	; 2
    23cc:	2e e3       	ldi	r18, 0x3E	; 62
    23ce:	4f e0       	ldi	r20, 0x0F	; 15
    23d0:	60 e3       	ldi	r22, 0x30	; 48
    23d2:	81 e0       	ldi	r24, 0x01	; 1
    23d4:	0e 94 5e 03 	call	0x6bc	; 0x6bc <screen_draw_rect>
    23d8:	86 b1       	in	r24, 0x06	; 6
    23da:	81 70       	andi	r24, 0x01	; 1
    23dc:	83 21       	and	r24, r3
    23de:	39 f1       	breq	.+78     	; 0x242e <main+0x4a8>
    23e0:	80 91 1f 01 	lds	r24, 0x011F
    23e4:	81 11       	cpse	r24, r1
    23e6:	02 c0       	rjmp	.+4      	; 0x23ec <main+0x466>
    23e8:	84 e0       	ldi	r24, 0x04	; 4
    23ea:	03 c0       	rjmp	.+6      	; 0x23f2 <main+0x46c>
    23ec:	84 30       	cpi	r24, 0x04	; 4
    23ee:	21 f4       	brne	.+8      	; 0x23f8 <main+0x472>
    23f0:	82 e0       	ldi	r24, 0x02	; 2
    23f2:	80 93 1f 01 	sts	0x011F, r24
    23f6:	18 c0       	rjmp	.+48     	; 0x2428 <main+0x4a2>
    23f8:	82 30       	cpi	r24, 0x02	; 2
    23fa:	11 f4       	brne	.+4      	; 0x2400 <main+0x47a>
    23fc:	81 e0       	ldi	r24, 0x01	; 1
    23fe:	f9 cf       	rjmp	.-14     	; 0x23f2 <main+0x46c>
    2400:	81 30       	cpi	r24, 0x01	; 1
    2402:	11 f4       	brne	.+4      	; 0x2408 <main+0x482>
    2404:	86 e0       	ldi	r24, 0x06	; 6
    2406:	f5 cf       	rjmp	.-22     	; 0x23f2 <main+0x46c>
    2408:	86 30       	cpi	r24, 0x06	; 6
    240a:	11 f4       	brne	.+4      	; 0x2410 <main+0x48a>
    240c:	83 e0       	ldi	r24, 0x03	; 3
    240e:	f1 cf       	rjmp	.-30     	; 0x23f2 <main+0x46c>
    2410:	83 30       	cpi	r24, 0x03	; 3
    2412:	11 f4       	brne	.+4      	; 0x2418 <main+0x492>
    2414:	85 e0       	ldi	r24, 0x05	; 5
    2416:	ed cf       	rjmp	.-38     	; 0x23f2 <main+0x46c>
    2418:	85 30       	cpi	r24, 0x05	; 5
    241a:	11 f4       	brne	.+4      	; 0x2420 <main+0x49a>
    241c:	87 e0       	ldi	r24, 0x07	; 7
    241e:	e9 cf       	rjmp	.-46     	; 0x23f2 <main+0x46c>
    2420:	87 30       	cpi	r24, 0x07	; 7
    2422:	11 f4       	brne	.+4      	; 0x2428 <main+0x4a2>
    2424:	10 92 1f 01 	sts	0x011F, r1
    2428:	0e 94 a5 0a 	call	0x154a	; 0x154a <display_refresh>
    242c:	7d c0       	rjmp	.+250    	; 0x2528 <main+0x5a2>
    242e:	86 b1       	in	r24, 0x06	; 6
    2430:	82 70       	andi	r24, 0x02	; 2
    2432:	83 21       	and	r24, r3
    2434:	71 f0       	breq	.+28     	; 0x2452 <main+0x4cc>
    2436:	80 91 1f 01 	lds	r24, 0x011F
    243a:	88 23       	and	r24, r24
    243c:	51 f0       	breq	.+20     	; 0x2452 <main+0x4cc>
    243e:	80 91 de 01 	lds	r24, 0x01DE
    2442:	8f 5f       	subi	r24, 0xFF	; 255
    2444:	80 93 de 01 	sts	0x01DE, r24
    2448:	84 30       	cpi	r24, 0x04	; 4
    244a:	71 f7       	brne	.-36     	; 0x2428 <main+0x4a2>
    244c:	10 92 de 01 	sts	0x01DE, r1
    2450:	eb cf       	rjmp	.-42     	; 0x2428 <main+0x4a2>
    2452:	86 b1       	in	r24, 0x06	; 6
    2454:	84 70       	andi	r24, 0x04	; 4
    2456:	83 21       	and	r24, r3
    2458:	c1 f0       	breq	.+48     	; 0x248a <main+0x504>
    245a:	80 91 1f 01 	lds	r24, 0x011F
    245e:	88 23       	and	r24, r24
    2460:	a1 f0       	breq	.+40     	; 0x248a <main+0x504>
    2462:	20 91 de 01 	lds	r18, 0x01DE
    2466:	80 91 df 01 	lds	r24, 0x01DF
    246a:	90 91 e0 01 	lds	r25, 0x01E0
    246e:	21 30       	cpi	r18, 0x01	; 1
    2470:	19 f4       	brne	.+6      	; 0x2478 <main+0x4f2>
    2472:	88 59       	subi	r24, 0x98	; 152
    2474:	9e 4f       	sbci	r25, 0xFE	; 254
    2476:	1d c0       	rjmp	.+58     	; 0x24b2 <main+0x52c>
    2478:	22 30       	cpi	r18, 0x02	; 2
    247a:	19 f4       	brne	.+6      	; 0x2482 <main+0x4fc>
    247c:	86 5a       	subi	r24, 0xA6	; 166
    247e:	9f 4f       	sbci	r25, 0xFF	; 255
    2480:	26 c0       	rjmp	.+76     	; 0x24ce <main+0x548>
    2482:	23 30       	cpi	r18, 0x03	; 3
    2484:	f1 f5       	brne	.+124    	; 0x2502 <main+0x57c>
    2486:	0f 96       	adiw	r24, 0x0f	; 15
    2488:	2f c0       	rjmp	.+94     	; 0x24e8 <main+0x562>
    248a:	86 b1       	in	r24, 0x06	; 6
    248c:	88 70       	andi	r24, 0x08	; 8
    248e:	83 21       	and	r24, r3
    2490:	09 f4       	brne	.+2      	; 0x2494 <main+0x50e>
    2492:	44 c0       	rjmp	.+136    	; 0x251c <main+0x596>
    2494:	80 91 1f 01 	lds	r24, 0x011F
    2498:	88 23       	and	r24, r24
    249a:	09 f4       	brne	.+2      	; 0x249e <main+0x518>
    249c:	3f c0       	rjmp	.+126    	; 0x251c <main+0x596>
    249e:	20 91 de 01 	lds	r18, 0x01DE
    24a2:	80 91 df 01 	lds	r24, 0x01DF
    24a6:	90 91 e0 01 	lds	r25, 0x01E0
    24aa:	21 30       	cpi	r18, 0x01	; 1
    24ac:	61 f4       	brne	.+24     	; 0x24c6 <main+0x540>
    24ae:	88 56       	subi	r24, 0x68	; 104
    24b0:	91 40       	sbci	r25, 0x01	; 1
    24b2:	90 93 e0 01 	sts	0x01E0, r25
    24b6:	80 93 df 01 	sts	0x01DF, r24
    24ba:	80 34       	cpi	r24, 0x40	; 64
    24bc:	9e 4d       	sbci	r25, 0xDE	; 222
    24be:	0c f5       	brge	.+66     	; 0x2502 <main+0x57c>
    24c0:	80 e4       	ldi	r24, 0x40	; 64
    24c2:	9e ed       	ldi	r25, 0xDE	; 222
    24c4:	1a c0       	rjmp	.+52     	; 0x24fa <main+0x574>
    24c6:	22 30       	cpi	r18, 0x02	; 2
    24c8:	61 f4       	brne	.+24     	; 0x24e2 <main+0x55c>
    24ca:	8a 55       	subi	r24, 0x5A	; 90
    24cc:	91 09       	sbc	r25, r1
    24ce:	90 93 e0 01 	sts	0x01E0, r25
    24d2:	80 93 df 01 	sts	0x01DF, r24
    24d6:	88 30       	cpi	r24, 0x08	; 8
    24d8:	9a 4d       	sbci	r25, 0xDA	; 218
    24da:	9c f4       	brge	.+38     	; 0x2502 <main+0x57c>
    24dc:	88 e0       	ldi	r24, 0x08	; 8
    24de:	9a ed       	ldi	r25, 0xDA	; 218
    24e0:	0c c0       	rjmp	.+24     	; 0x24fa <main+0x574>
    24e2:	23 30       	cpi	r18, 0x03	; 3
    24e4:	71 f4       	brne	.+28     	; 0x2502 <main+0x57c>
    24e6:	0f 97       	sbiw	r24, 0x0f	; 15
    24e8:	90 93 e0 01 	sts	0x01E0, r25
    24ec:	80 93 df 01 	sts	0x01DF, r24
    24f0:	8c 3d       	cpi	r24, 0xDC	; 220
    24f2:	98 4d       	sbci	r25, 0xD8	; 216
    24f4:	34 f4       	brge	.+12     	; 0x2502 <main+0x57c>
    24f6:	8f ea       	ldi	r24, 0xAF	; 175
    24f8:	98 ed       	ldi	r25, 0xD8	; 216
    24fa:	90 93 e0 01 	sts	0x01E0, r25
    24fe:	80 93 df 01 	sts	0x01DF, r24
    2502:	80 91 df 01 	lds	r24, 0x01DF
    2506:	90 91 e0 01 	lds	r25, 0x01E0
    250a:	18 16       	cp	r1, r24
    250c:	19 06       	cpc	r1, r25
    250e:	0c f0       	brlt	.+2      	; 0x2512 <main+0x58c>
    2510:	8b cf       	rjmp	.-234    	; 0x2428 <main+0x4a2>
    2512:	10 92 e0 01 	sts	0x01E0, r1
    2516:	10 92 df 01 	sts	0x01DF, r1
    251a:	86 cf       	rjmp	.-244    	; 0x2428 <main+0x4a2>
    251c:	2e e3       	ldi	r18, 0x3E	; 62
    251e:	40 e1       	ldi	r20, 0x10	; 16
    2520:	61 e0       	ldi	r22, 0x01	; 1
    2522:	81 e0       	ldi	r24, 0x01	; 1
    2524:	0e 94 b3 02 	call	0x566	; 0x566 <screen_refresh_rect>
    2528:	86 b1       	in	r24, 0x06	; 6
    252a:	80 93 00 01 	sts	0x0100, r24
    252e:	f7 cd       	rjmp	.-1042   	; 0x211e <main+0x198>

00002530 <vfprintf>:
    2530:	a3 e1       	ldi	r26, 0x13	; 19
    2532:	b0 e0       	ldi	r27, 0x00	; 0
    2534:	ee e9       	ldi	r30, 0x9E	; 158
    2536:	f2 e1       	ldi	r31, 0x12	; 18
    2538:	0c 94 77 17 	jmp	0x2eee	; 0x2eee <__prologue_saves__>
    253c:	7c 01       	movw	r14, r24
    253e:	1b 01       	movw	r2, r22
    2540:	6a 01       	movw	r12, r20
    2542:	fc 01       	movw	r30, r24
    2544:	17 82       	std	Z+7, r1	; 0x07
    2546:	16 82       	std	Z+6, r1	; 0x06
    2548:	83 81       	ldd	r24, Z+3	; 0x03
    254a:	81 ff       	sbrs	r24, 1
    254c:	66 c3       	rjmp	.+1740   	; 0x2c1a <vfprintf+0x6ea>
    254e:	be 01       	movw	r22, r28
    2550:	6f 5f       	subi	r22, 0xFF	; 255
    2552:	7f 4f       	sbci	r23, 0xFF	; 255
    2554:	4b 01       	movw	r8, r22
    2556:	f7 01       	movw	r30, r14
    2558:	93 81       	ldd	r25, Z+3	; 0x03
    255a:	f1 01       	movw	r30, r2
    255c:	93 fd       	sbrc	r25, 3
    255e:	85 91       	lpm	r24, Z+
    2560:	93 ff       	sbrs	r25, 3
    2562:	81 91       	ld	r24, Z+
    2564:	1f 01       	movw	r2, r30
    2566:	88 23       	and	r24, r24
    2568:	09 f4       	brne	.+2      	; 0x256c <vfprintf+0x3c>
    256a:	53 c3       	rjmp	.+1702   	; 0x2c12 <vfprintf+0x6e2>
    256c:	85 32       	cpi	r24, 0x25	; 37
    256e:	39 f4       	brne	.+14     	; 0x257e <vfprintf+0x4e>
    2570:	93 fd       	sbrc	r25, 3
    2572:	85 91       	lpm	r24, Z+
    2574:	93 ff       	sbrs	r25, 3
    2576:	81 91       	ld	r24, Z+
    2578:	1f 01       	movw	r2, r30
    257a:	85 32       	cpi	r24, 0x25	; 37
    257c:	39 f4       	brne	.+14     	; 0x258c <vfprintf+0x5c>
    257e:	b7 01       	movw	r22, r14
    2580:	90 e0       	ldi	r25, 0x00	; 0
    2582:	0e 94 9c 18 	call	0x3138	; 0x3138 <fputc>
    2586:	56 01       	movw	r10, r12
    2588:	65 01       	movw	r12, r10
    258a:	e5 cf       	rjmp	.-54     	; 0x2556 <vfprintf+0x26>
    258c:	10 e0       	ldi	r17, 0x00	; 0
    258e:	51 2c       	mov	r5, r1
    2590:	20 e0       	ldi	r18, 0x00	; 0
    2592:	20 32       	cpi	r18, 0x20	; 32
    2594:	a0 f4       	brcc	.+40     	; 0x25be <vfprintf+0x8e>
    2596:	8b 32       	cpi	r24, 0x2B	; 43
    2598:	69 f0       	breq	.+26     	; 0x25b4 <vfprintf+0x84>
    259a:	30 f4       	brcc	.+12     	; 0x25a8 <vfprintf+0x78>
    259c:	80 32       	cpi	r24, 0x20	; 32
    259e:	59 f0       	breq	.+22     	; 0x25b6 <vfprintf+0x86>
    25a0:	83 32       	cpi	r24, 0x23	; 35
    25a2:	69 f4       	brne	.+26     	; 0x25be <vfprintf+0x8e>
    25a4:	20 61       	ori	r18, 0x10	; 16
    25a6:	2c c0       	rjmp	.+88     	; 0x2600 <vfprintf+0xd0>
    25a8:	8d 32       	cpi	r24, 0x2D	; 45
    25aa:	39 f0       	breq	.+14     	; 0x25ba <vfprintf+0x8a>
    25ac:	80 33       	cpi	r24, 0x30	; 48
    25ae:	39 f4       	brne	.+14     	; 0x25be <vfprintf+0x8e>
    25b0:	21 60       	ori	r18, 0x01	; 1
    25b2:	26 c0       	rjmp	.+76     	; 0x2600 <vfprintf+0xd0>
    25b4:	22 60       	ori	r18, 0x02	; 2
    25b6:	24 60       	ori	r18, 0x04	; 4
    25b8:	23 c0       	rjmp	.+70     	; 0x2600 <vfprintf+0xd0>
    25ba:	28 60       	ori	r18, 0x08	; 8
    25bc:	21 c0       	rjmp	.+66     	; 0x2600 <vfprintf+0xd0>
    25be:	27 fd       	sbrc	r18, 7
    25c0:	27 c0       	rjmp	.+78     	; 0x2610 <vfprintf+0xe0>
    25c2:	30 ed       	ldi	r19, 0xD0	; 208
    25c4:	38 0f       	add	r19, r24
    25c6:	3a 30       	cpi	r19, 0x0A	; 10
    25c8:	78 f4       	brcc	.+30     	; 0x25e8 <vfprintf+0xb8>
    25ca:	26 ff       	sbrs	r18, 6
    25cc:	06 c0       	rjmp	.+12     	; 0x25da <vfprintf+0xaa>
    25ce:	fa e0       	ldi	r31, 0x0A	; 10
    25d0:	1f 9f       	mul	r17, r31
    25d2:	30 0d       	add	r19, r0
    25d4:	11 24       	eor	r1, r1
    25d6:	13 2f       	mov	r17, r19
    25d8:	13 c0       	rjmp	.+38     	; 0x2600 <vfprintf+0xd0>
    25da:	6a e0       	ldi	r22, 0x0A	; 10
    25dc:	56 9e       	mul	r5, r22
    25de:	30 0d       	add	r19, r0
    25e0:	11 24       	eor	r1, r1
    25e2:	53 2e       	mov	r5, r19
    25e4:	20 62       	ori	r18, 0x20	; 32
    25e6:	0c c0       	rjmp	.+24     	; 0x2600 <vfprintf+0xd0>
    25e8:	8e 32       	cpi	r24, 0x2E	; 46
    25ea:	21 f4       	brne	.+8      	; 0x25f4 <vfprintf+0xc4>
    25ec:	26 fd       	sbrc	r18, 6
    25ee:	11 c3       	rjmp	.+1570   	; 0x2c12 <vfprintf+0x6e2>
    25f0:	20 64       	ori	r18, 0x40	; 64
    25f2:	06 c0       	rjmp	.+12     	; 0x2600 <vfprintf+0xd0>
    25f4:	8c 36       	cpi	r24, 0x6C	; 108
    25f6:	11 f4       	brne	.+4      	; 0x25fc <vfprintf+0xcc>
    25f8:	20 68       	ori	r18, 0x80	; 128
    25fa:	02 c0       	rjmp	.+4      	; 0x2600 <vfprintf+0xd0>
    25fc:	88 36       	cpi	r24, 0x68	; 104
    25fe:	41 f4       	brne	.+16     	; 0x2610 <vfprintf+0xe0>
    2600:	f1 01       	movw	r30, r2
    2602:	93 fd       	sbrc	r25, 3
    2604:	85 91       	lpm	r24, Z+
    2606:	93 ff       	sbrs	r25, 3
    2608:	81 91       	ld	r24, Z+
    260a:	1f 01       	movw	r2, r30
    260c:	81 11       	cpse	r24, r1
    260e:	c1 cf       	rjmp	.-126    	; 0x2592 <vfprintf+0x62>
    2610:	9b eb       	ldi	r25, 0xBB	; 187
    2612:	98 0f       	add	r25, r24
    2614:	93 30       	cpi	r25, 0x03	; 3
    2616:	18 f4       	brcc	.+6      	; 0x261e <vfprintf+0xee>
    2618:	20 61       	ori	r18, 0x10	; 16
    261a:	80 5e       	subi	r24, 0xE0	; 224
    261c:	06 c0       	rjmp	.+12     	; 0x262a <vfprintf+0xfa>
    261e:	9b e9       	ldi	r25, 0x9B	; 155
    2620:	98 0f       	add	r25, r24
    2622:	93 30       	cpi	r25, 0x03	; 3
    2624:	08 f0       	brcs	.+2      	; 0x2628 <vfprintf+0xf8>
    2626:	aa c1       	rjmp	.+852    	; 0x297c <vfprintf+0x44c>
    2628:	2f 7e       	andi	r18, 0xEF	; 239
    262a:	26 ff       	sbrs	r18, 6
    262c:	16 e0       	ldi	r17, 0x06	; 6
    262e:	2f 73       	andi	r18, 0x3F	; 63
    2630:	72 2e       	mov	r7, r18
    2632:	85 36       	cpi	r24, 0x65	; 101
    2634:	21 f4       	brne	.+8      	; 0x263e <vfprintf+0x10e>
    2636:	f2 2f       	mov	r31, r18
    2638:	f0 64       	ori	r31, 0x40	; 64
    263a:	7f 2e       	mov	r7, r31
    263c:	08 c0       	rjmp	.+16     	; 0x264e <vfprintf+0x11e>
    263e:	86 36       	cpi	r24, 0x66	; 102
    2640:	21 f4       	brne	.+8      	; 0x264a <vfprintf+0x11a>
    2642:	62 2f       	mov	r22, r18
    2644:	60 68       	ori	r22, 0x80	; 128
    2646:	76 2e       	mov	r7, r22
    2648:	02 c0       	rjmp	.+4      	; 0x264e <vfprintf+0x11e>
    264a:	11 11       	cpse	r17, r1
    264c:	11 50       	subi	r17, 0x01	; 1
    264e:	77 fe       	sbrs	r7, 7
    2650:	07 c0       	rjmp	.+14     	; 0x2660 <vfprintf+0x130>
    2652:	1c 33       	cpi	r17, 0x3C	; 60
    2654:	48 f4       	brcc	.+18     	; 0x2668 <vfprintf+0x138>
    2656:	44 24       	eor	r4, r4
    2658:	43 94       	inc	r4
    265a:	41 0e       	add	r4, r17
    265c:	27 e0       	ldi	r18, 0x07	; 7
    265e:	0b c0       	rjmp	.+22     	; 0x2676 <vfprintf+0x146>
    2660:	18 30       	cpi	r17, 0x08	; 8
    2662:	30 f4       	brcc	.+12     	; 0x2670 <vfprintf+0x140>
    2664:	21 2f       	mov	r18, r17
    2666:	06 c0       	rjmp	.+12     	; 0x2674 <vfprintf+0x144>
    2668:	27 e0       	ldi	r18, 0x07	; 7
    266a:	4c e3       	ldi	r20, 0x3C	; 60
    266c:	44 2e       	mov	r4, r20
    266e:	03 c0       	rjmp	.+6      	; 0x2676 <vfprintf+0x146>
    2670:	27 e0       	ldi	r18, 0x07	; 7
    2672:	17 e0       	ldi	r17, 0x07	; 7
    2674:	41 2c       	mov	r4, r1
    2676:	56 01       	movw	r10, r12
    2678:	74 e0       	ldi	r23, 0x04	; 4
    267a:	a7 0e       	add	r10, r23
    267c:	b1 1c       	adc	r11, r1
    267e:	f6 01       	movw	r30, r12
    2680:	60 81       	ld	r22, Z
    2682:	71 81       	ldd	r23, Z+1	; 0x01
    2684:	82 81       	ldd	r24, Z+2	; 0x02
    2686:	93 81       	ldd	r25, Z+3	; 0x03
    2688:	04 2d       	mov	r16, r4
    268a:	a4 01       	movw	r20, r8
    268c:	0e 94 ae 17 	call	0x2f5c	; 0x2f5c <__ftoa_engine>
    2690:	6c 01       	movw	r12, r24
    2692:	09 81       	ldd	r16, Y+1	; 0x01
    2694:	00 ff       	sbrs	r16, 0
    2696:	02 c0       	rjmp	.+4      	; 0x269c <vfprintf+0x16c>
    2698:	03 ff       	sbrs	r16, 3
    269a:	06 c0       	rjmp	.+12     	; 0x26a8 <vfprintf+0x178>
    269c:	71 fc       	sbrc	r7, 1
    269e:	07 c0       	rjmp	.+14     	; 0x26ae <vfprintf+0x17e>
    26a0:	72 fc       	sbrc	r7, 2
    26a2:	08 c0       	rjmp	.+16     	; 0x26b4 <vfprintf+0x184>
    26a4:	61 2c       	mov	r6, r1
    26a6:	08 c0       	rjmp	.+16     	; 0x26b8 <vfprintf+0x188>
    26a8:	3d e2       	ldi	r19, 0x2D	; 45
    26aa:	63 2e       	mov	r6, r19
    26ac:	05 c0       	rjmp	.+10     	; 0x26b8 <vfprintf+0x188>
    26ae:	2b e2       	ldi	r18, 0x2B	; 43
    26b0:	62 2e       	mov	r6, r18
    26b2:	02 c0       	rjmp	.+4      	; 0x26b8 <vfprintf+0x188>
    26b4:	90 e2       	ldi	r25, 0x20	; 32
    26b6:	69 2e       	mov	r6, r25
    26b8:	80 2f       	mov	r24, r16
    26ba:	8c 70       	andi	r24, 0x0C	; 12
    26bc:	99 f1       	breq	.+102    	; 0x2724 <vfprintf+0x1f4>
    26be:	66 20       	and	r6, r6
    26c0:	11 f0       	breq	.+4      	; 0x26c6 <vfprintf+0x196>
    26c2:	84 e0       	ldi	r24, 0x04	; 4
    26c4:	01 c0       	rjmp	.+2      	; 0x26c8 <vfprintf+0x198>
    26c6:	83 e0       	ldi	r24, 0x03	; 3
    26c8:	85 15       	cp	r24, r5
    26ca:	10 f0       	brcs	.+4      	; 0x26d0 <vfprintf+0x1a0>
    26cc:	51 2c       	mov	r5, r1
    26ce:	0b c0       	rjmp	.+22     	; 0x26e6 <vfprintf+0x1b6>
    26d0:	58 1a       	sub	r5, r24
    26d2:	73 fc       	sbrc	r7, 3
    26d4:	08 c0       	rjmp	.+16     	; 0x26e6 <vfprintf+0x1b6>
    26d6:	b7 01       	movw	r22, r14
    26d8:	80 e2       	ldi	r24, 0x20	; 32
    26da:	90 e0       	ldi	r25, 0x00	; 0
    26dc:	0e 94 9c 18 	call	0x3138	; 0x3138 <fputc>
    26e0:	5a 94       	dec	r5
    26e2:	c9 f7       	brne	.-14     	; 0x26d6 <vfprintf+0x1a6>
    26e4:	f3 cf       	rjmp	.-26     	; 0x26cc <vfprintf+0x19c>
    26e6:	66 20       	and	r6, r6
    26e8:	29 f0       	breq	.+10     	; 0x26f4 <vfprintf+0x1c4>
    26ea:	b7 01       	movw	r22, r14
    26ec:	86 2d       	mov	r24, r6
    26ee:	90 e0       	ldi	r25, 0x00	; 0
    26f0:	0e 94 9c 18 	call	0x3138	; 0x3138 <fputc>
    26f4:	03 fd       	sbrc	r16, 3
    26f6:	03 c0       	rjmp	.+6      	; 0x26fe <vfprintf+0x1ce>
    26f8:	00 e7       	ldi	r16, 0x70	; 112
    26fa:	13 e0       	ldi	r17, 0x03	; 3
    26fc:	02 c0       	rjmp	.+4      	; 0x2702 <vfprintf+0x1d2>
    26fe:	0c e6       	ldi	r16, 0x6C	; 108
    2700:	13 e0       	ldi	r17, 0x03	; 3
    2702:	f7 2d       	mov	r31, r7
    2704:	f0 71       	andi	r31, 0x10	; 16
    2706:	7f 2e       	mov	r7, r31
    2708:	f8 01       	movw	r30, r16
    270a:	84 91       	lpm	r24, Z
    270c:	88 23       	and	r24, r24
    270e:	09 f4       	brne	.+2      	; 0x2712 <vfprintf+0x1e2>
    2710:	76 c2       	rjmp	.+1260   	; 0x2bfe <vfprintf+0x6ce>
    2712:	71 10       	cpse	r7, r1
    2714:	80 52       	subi	r24, 0x20	; 32
    2716:	b7 01       	movw	r22, r14
    2718:	90 e0       	ldi	r25, 0x00	; 0
    271a:	0e 94 9c 18 	call	0x3138	; 0x3138 <fputc>
    271e:	0f 5f       	subi	r16, 0xFF	; 255
    2720:	1f 4f       	sbci	r17, 0xFF	; 255
    2722:	f2 cf       	rjmp	.-28     	; 0x2708 <vfprintf+0x1d8>
    2724:	77 fe       	sbrs	r7, 7
    2726:	0f c0       	rjmp	.+30     	; 0x2746 <vfprintf+0x216>
    2728:	4c 0c       	add	r4, r12
    272a:	04 ff       	sbrs	r16, 4
    272c:	04 c0       	rjmp	.+8      	; 0x2736 <vfprintf+0x206>
    272e:	8a 81       	ldd	r24, Y+2	; 0x02
    2730:	81 33       	cpi	r24, 0x31	; 49
    2732:	09 f4       	brne	.+2      	; 0x2736 <vfprintf+0x206>
    2734:	4a 94       	dec	r4
    2736:	14 14       	cp	r1, r4
    2738:	74 f5       	brge	.+92     	; 0x2796 <vfprintf+0x266>
    273a:	f8 e0       	ldi	r31, 0x08	; 8
    273c:	f4 15       	cp	r31, r4
    273e:	78 f5       	brcc	.+94     	; 0x279e <vfprintf+0x26e>
    2740:	88 e0       	ldi	r24, 0x08	; 8
    2742:	48 2e       	mov	r4, r24
    2744:	2c c0       	rjmp	.+88     	; 0x279e <vfprintf+0x26e>
    2746:	76 fc       	sbrc	r7, 6
    2748:	2a c0       	rjmp	.+84     	; 0x279e <vfprintf+0x26e>
    274a:	81 2f       	mov	r24, r17
    274c:	90 e0       	ldi	r25, 0x00	; 0
    274e:	8c 15       	cp	r24, r12
    2750:	9d 05       	cpc	r25, r13
    2752:	9c f0       	brlt	.+38     	; 0x277a <vfprintf+0x24a>
    2754:	6c ef       	ldi	r22, 0xFC	; 252
    2756:	c6 16       	cp	r12, r22
    2758:	6f ef       	ldi	r22, 0xFF	; 255
    275a:	d6 06       	cpc	r13, r22
    275c:	74 f0       	brlt	.+28     	; 0x277a <vfprintf+0x24a>
    275e:	77 2d       	mov	r23, r7
    2760:	70 68       	ori	r23, 0x80	; 128
    2762:	77 2e       	mov	r7, r23
    2764:	0a c0       	rjmp	.+20     	; 0x277a <vfprintf+0x24a>
    2766:	e2 e0       	ldi	r30, 0x02	; 2
    2768:	f0 e0       	ldi	r31, 0x00	; 0
    276a:	ec 0f       	add	r30, r28
    276c:	fd 1f       	adc	r31, r29
    276e:	e1 0f       	add	r30, r17
    2770:	f1 1d       	adc	r31, r1
    2772:	80 81       	ld	r24, Z
    2774:	80 33       	cpi	r24, 0x30	; 48
    2776:	19 f4       	brne	.+6      	; 0x277e <vfprintf+0x24e>
    2778:	11 50       	subi	r17, 0x01	; 1
    277a:	11 11       	cpse	r17, r1
    277c:	f4 cf       	rjmp	.-24     	; 0x2766 <vfprintf+0x236>
    277e:	77 fe       	sbrs	r7, 7
    2780:	0e c0       	rjmp	.+28     	; 0x279e <vfprintf+0x26e>
    2782:	44 24       	eor	r4, r4
    2784:	43 94       	inc	r4
    2786:	41 0e       	add	r4, r17
    2788:	81 2f       	mov	r24, r17
    278a:	90 e0       	ldi	r25, 0x00	; 0
    278c:	c8 16       	cp	r12, r24
    278e:	d9 06       	cpc	r13, r25
    2790:	2c f4       	brge	.+10     	; 0x279c <vfprintf+0x26c>
    2792:	1c 19       	sub	r17, r12
    2794:	04 c0       	rjmp	.+8      	; 0x279e <vfprintf+0x26e>
    2796:	44 24       	eor	r4, r4
    2798:	43 94       	inc	r4
    279a:	01 c0       	rjmp	.+2      	; 0x279e <vfprintf+0x26e>
    279c:	10 e0       	ldi	r17, 0x00	; 0
    279e:	77 fe       	sbrs	r7, 7
    27a0:	07 c0       	rjmp	.+14     	; 0x27b0 <vfprintf+0x280>
    27a2:	1c 14       	cp	r1, r12
    27a4:	1d 04       	cpc	r1, r13
    27a6:	3c f4       	brge	.+14     	; 0x27b6 <vfprintf+0x286>
    27a8:	96 01       	movw	r18, r12
    27aa:	2f 5f       	subi	r18, 0xFF	; 255
    27ac:	3f 4f       	sbci	r19, 0xFF	; 255
    27ae:	05 c0       	rjmp	.+10     	; 0x27ba <vfprintf+0x28a>
    27b0:	25 e0       	ldi	r18, 0x05	; 5
    27b2:	30 e0       	ldi	r19, 0x00	; 0
    27b4:	02 c0       	rjmp	.+4      	; 0x27ba <vfprintf+0x28a>
    27b6:	21 e0       	ldi	r18, 0x01	; 1
    27b8:	30 e0       	ldi	r19, 0x00	; 0
    27ba:	66 20       	and	r6, r6
    27bc:	11 f0       	breq	.+4      	; 0x27c2 <vfprintf+0x292>
    27be:	2f 5f       	subi	r18, 0xFF	; 255
    27c0:	3f 4f       	sbci	r19, 0xFF	; 255
    27c2:	11 23       	and	r17, r17
    27c4:	31 f0       	breq	.+12     	; 0x27d2 <vfprintf+0x2a2>
    27c6:	41 2f       	mov	r20, r17
    27c8:	50 e0       	ldi	r21, 0x00	; 0
    27ca:	4f 5f       	subi	r20, 0xFF	; 255
    27cc:	5f 4f       	sbci	r21, 0xFF	; 255
    27ce:	24 0f       	add	r18, r20
    27d0:	35 1f       	adc	r19, r21
    27d2:	45 2d       	mov	r20, r5
    27d4:	50 e0       	ldi	r21, 0x00	; 0
    27d6:	24 17       	cp	r18, r20
    27d8:	35 07       	cpc	r19, r21
    27da:	14 f4       	brge	.+4      	; 0x27e0 <vfprintf+0x2b0>
    27dc:	52 1a       	sub	r5, r18
    27de:	01 c0       	rjmp	.+2      	; 0x27e2 <vfprintf+0x2b2>
    27e0:	51 2c       	mov	r5, r1
    27e2:	87 2d       	mov	r24, r7
    27e4:	89 70       	andi	r24, 0x09	; 9
    27e6:	49 f4       	brne	.+18     	; 0x27fa <vfprintf+0x2ca>
    27e8:	55 20       	and	r5, r5
    27ea:	39 f0       	breq	.+14     	; 0x27fa <vfprintf+0x2ca>
    27ec:	b7 01       	movw	r22, r14
    27ee:	80 e2       	ldi	r24, 0x20	; 32
    27f0:	90 e0       	ldi	r25, 0x00	; 0
    27f2:	0e 94 9c 18 	call	0x3138	; 0x3138 <fputc>
    27f6:	5a 94       	dec	r5
    27f8:	f7 cf       	rjmp	.-18     	; 0x27e8 <vfprintf+0x2b8>
    27fa:	66 20       	and	r6, r6
    27fc:	29 f0       	breq	.+10     	; 0x2808 <vfprintf+0x2d8>
    27fe:	b7 01       	movw	r22, r14
    2800:	86 2d       	mov	r24, r6
    2802:	90 e0       	ldi	r25, 0x00	; 0
    2804:	0e 94 9c 18 	call	0x3138	; 0x3138 <fputc>
    2808:	73 fc       	sbrc	r7, 3
    280a:	09 c0       	rjmp	.+18     	; 0x281e <vfprintf+0x2ee>
    280c:	55 20       	and	r5, r5
    280e:	39 f0       	breq	.+14     	; 0x281e <vfprintf+0x2ee>
    2810:	b7 01       	movw	r22, r14
    2812:	80 e3       	ldi	r24, 0x30	; 48
    2814:	90 e0       	ldi	r25, 0x00	; 0
    2816:	0e 94 9c 18 	call	0x3138	; 0x3138 <fputc>
    281a:	5a 94       	dec	r5
    281c:	f7 cf       	rjmp	.-18     	; 0x280c <vfprintf+0x2dc>
    281e:	77 fe       	sbrs	r7, 7
    2820:	5f c0       	rjmp	.+190    	; 0x28e0 <vfprintf+0x3b0>
    2822:	9c 2d       	mov	r25, r12
    2824:	8d 2d       	mov	r24, r13
    2826:	d7 fe       	sbrs	r13, 7
    2828:	02 c0       	rjmp	.+4      	; 0x282e <vfprintf+0x2fe>
    282a:	90 e0       	ldi	r25, 0x00	; 0
    282c:	80 e0       	ldi	r24, 0x00	; 0
    282e:	69 2e       	mov	r6, r25
    2830:	78 2e       	mov	r7, r24
    2832:	40 e0       	ldi	r20, 0x00	; 0
    2834:	50 e0       	ldi	r21, 0x00	; 0
    2836:	c6 01       	movw	r24, r12
    2838:	84 19       	sub	r24, r4
    283a:	91 09       	sbc	r25, r1
    283c:	9d 87       	std	Y+13, r25	; 0x0d
    283e:	8c 87       	std	Y+12, r24	; 0x0c
    2840:	96 01       	movw	r18, r12
    2842:	26 19       	sub	r18, r6
    2844:	37 09       	sbc	r19, r7
    2846:	28 0d       	add	r18, r8
    2848:	39 1d       	adc	r19, r9
    284a:	81 2f       	mov	r24, r17
    284c:	90 e0       	ldi	r25, 0x00	; 0
    284e:	ee 27       	eor	r30, r30
    2850:	ff 27       	eor	r31, r31
    2852:	e8 1b       	sub	r30, r24
    2854:	f9 0b       	sbc	r31, r25
    2856:	ff 87       	std	Y+15, r31	; 0x0f
    2858:	ee 87       	std	Y+14, r30	; 0x0e
    285a:	ff ef       	ldi	r31, 0xFF	; 255
    285c:	6f 16       	cp	r6, r31
    285e:	7f 06       	cpc	r7, r31
    2860:	69 f4       	brne	.+26     	; 0x287c <vfprintf+0x34c>
    2862:	b7 01       	movw	r22, r14
    2864:	8e e2       	ldi	r24, 0x2E	; 46
    2866:	90 e0       	ldi	r25, 0x00	; 0
    2868:	2b 8b       	std	Y+19, r18	; 0x13
    286a:	3a 8b       	std	Y+18, r19	; 0x12
    286c:	48 8b       	std	Y+16, r20	; 0x10
    286e:	59 8b       	std	Y+17, r21	; 0x11
    2870:	0e 94 9c 18 	call	0x3138	; 0x3138 <fputc>
    2874:	59 89       	ldd	r21, Y+17	; 0x11
    2876:	48 89       	ldd	r20, Y+16	; 0x10
    2878:	3a 89       	ldd	r19, Y+18	; 0x12
    287a:	2b 89       	ldd	r18, Y+19	; 0x13
    287c:	c6 14       	cp	r12, r6
    287e:	d7 04       	cpc	r13, r7
    2880:	54 f0       	brlt	.+20     	; 0x2896 <vfprintf+0x366>
    2882:	6c 85       	ldd	r22, Y+12	; 0x0c
    2884:	7d 85       	ldd	r23, Y+13	; 0x0d
    2886:	66 15       	cp	r22, r6
    2888:	77 05       	cpc	r23, r7
    288a:	2c f4       	brge	.+10     	; 0x2896 <vfprintf+0x366>
    288c:	f9 01       	movw	r30, r18
    288e:	e4 0f       	add	r30, r20
    2890:	f5 1f       	adc	r31, r21
    2892:	81 81       	ldd	r24, Z+1	; 0x01
    2894:	01 c0       	rjmp	.+2      	; 0x2898 <vfprintf+0x368>
    2896:	80 e3       	ldi	r24, 0x30	; 48
    2898:	71 e0       	ldi	r23, 0x01	; 1
    289a:	67 1a       	sub	r6, r23
    289c:	71 08       	sbc	r7, r1
    289e:	4f 5f       	subi	r20, 0xFF	; 255
    28a0:	5f 4f       	sbci	r21, 0xFF	; 255
    28a2:	ee 85       	ldd	r30, Y+14	; 0x0e
    28a4:	ff 85       	ldd	r31, Y+15	; 0x0f
    28a6:	6e 16       	cp	r6, r30
    28a8:	7f 06       	cpc	r7, r31
    28aa:	6c f0       	brlt	.+26     	; 0x28c6 <vfprintf+0x396>
    28ac:	b7 01       	movw	r22, r14
    28ae:	90 e0       	ldi	r25, 0x00	; 0
    28b0:	2b 8b       	std	Y+19, r18	; 0x13
    28b2:	3a 8b       	std	Y+18, r19	; 0x12
    28b4:	48 8b       	std	Y+16, r20	; 0x10
    28b6:	59 8b       	std	Y+17, r21	; 0x11
    28b8:	0e 94 9c 18 	call	0x3138	; 0x3138 <fputc>
    28bc:	2b 89       	ldd	r18, Y+19	; 0x13
    28be:	3a 89       	ldd	r19, Y+18	; 0x12
    28c0:	48 89       	ldd	r20, Y+16	; 0x10
    28c2:	59 89       	ldd	r21, Y+17	; 0x11
    28c4:	ca cf       	rjmp	.-108    	; 0x285a <vfprintf+0x32a>
    28c6:	6c 14       	cp	r6, r12
    28c8:	7d 04       	cpc	r7, r13
    28ca:	39 f4       	brne	.+14     	; 0x28da <vfprintf+0x3aa>
    28cc:	9a 81       	ldd	r25, Y+2	; 0x02
    28ce:	96 33       	cpi	r25, 0x36	; 54
    28d0:	18 f4       	brcc	.+6      	; 0x28d8 <vfprintf+0x3a8>
    28d2:	95 33       	cpi	r25, 0x35	; 53
    28d4:	11 f4       	brne	.+4      	; 0x28da <vfprintf+0x3aa>
    28d6:	04 ff       	sbrs	r16, 4
    28d8:	81 e3       	ldi	r24, 0x31	; 49
    28da:	b7 01       	movw	r22, r14
    28dc:	90 e0       	ldi	r25, 0x00	; 0
    28de:	4b c0       	rjmp	.+150    	; 0x2976 <vfprintf+0x446>
    28e0:	8a 81       	ldd	r24, Y+2	; 0x02
    28e2:	81 33       	cpi	r24, 0x31	; 49
    28e4:	09 f0       	breq	.+2      	; 0x28e8 <vfprintf+0x3b8>
    28e6:	0f 7e       	andi	r16, 0xEF	; 239
    28e8:	b7 01       	movw	r22, r14
    28ea:	90 e0       	ldi	r25, 0x00	; 0
    28ec:	0e 94 9c 18 	call	0x3138	; 0x3138 <fputc>
    28f0:	11 11       	cpse	r17, r1
    28f2:	05 c0       	rjmp	.+10     	; 0x28fe <vfprintf+0x3ce>
    28f4:	74 fe       	sbrs	r7, 4
    28f6:	18 c0       	rjmp	.+48     	; 0x2928 <vfprintf+0x3f8>
    28f8:	85 e4       	ldi	r24, 0x45	; 69
    28fa:	90 e0       	ldi	r25, 0x00	; 0
    28fc:	17 c0       	rjmp	.+46     	; 0x292c <vfprintf+0x3fc>
    28fe:	b7 01       	movw	r22, r14
    2900:	8e e2       	ldi	r24, 0x2E	; 46
    2902:	90 e0       	ldi	r25, 0x00	; 0
    2904:	0e 94 9c 18 	call	0x3138	; 0x3138 <fputc>
    2908:	82 e0       	ldi	r24, 0x02	; 2
    290a:	66 24       	eor	r6, r6
    290c:	63 94       	inc	r6
    290e:	68 0e       	add	r6, r24
    2910:	f4 01       	movw	r30, r8
    2912:	e8 0f       	add	r30, r24
    2914:	f1 1d       	adc	r31, r1
    2916:	80 81       	ld	r24, Z
    2918:	b7 01       	movw	r22, r14
    291a:	90 e0       	ldi	r25, 0x00	; 0
    291c:	0e 94 9c 18 	call	0x3138	; 0x3138 <fputc>
    2920:	11 50       	subi	r17, 0x01	; 1
    2922:	41 f3       	breq	.-48     	; 0x28f4 <vfprintf+0x3c4>
    2924:	86 2d       	mov	r24, r6
    2926:	f1 cf       	rjmp	.-30     	; 0x290a <vfprintf+0x3da>
    2928:	85 e6       	ldi	r24, 0x65	; 101
    292a:	90 e0       	ldi	r25, 0x00	; 0
    292c:	b7 01       	movw	r22, r14
    292e:	0e 94 9c 18 	call	0x3138	; 0x3138 <fputc>
    2932:	d7 fc       	sbrc	r13, 7
    2934:	05 c0       	rjmp	.+10     	; 0x2940 <vfprintf+0x410>
    2936:	c1 14       	cp	r12, r1
    2938:	d1 04       	cpc	r13, r1
    293a:	39 f4       	brne	.+14     	; 0x294a <vfprintf+0x41a>
    293c:	04 ff       	sbrs	r16, 4
    293e:	05 c0       	rjmp	.+10     	; 0x294a <vfprintf+0x41a>
    2940:	d1 94       	neg	r13
    2942:	c1 94       	neg	r12
    2944:	d1 08       	sbc	r13, r1
    2946:	8d e2       	ldi	r24, 0x2D	; 45
    2948:	01 c0       	rjmp	.+2      	; 0x294c <vfprintf+0x41c>
    294a:	8b e2       	ldi	r24, 0x2B	; 43
    294c:	b7 01       	movw	r22, r14
    294e:	90 e0       	ldi	r25, 0x00	; 0
    2950:	0e 94 9c 18 	call	0x3138	; 0x3138 <fputc>
    2954:	80 e3       	ldi	r24, 0x30	; 48
    2956:	6a e0       	ldi	r22, 0x0A	; 10
    2958:	c6 16       	cp	r12, r22
    295a:	d1 04       	cpc	r13, r1
    295c:	2c f0       	brlt	.+10     	; 0x2968 <vfprintf+0x438>
    295e:	8f 5f       	subi	r24, 0xFF	; 255
    2960:	fa e0       	ldi	r31, 0x0A	; 10
    2962:	cf 1a       	sub	r12, r31
    2964:	d1 08       	sbc	r13, r1
    2966:	f7 cf       	rjmp	.-18     	; 0x2956 <vfprintf+0x426>
    2968:	b7 01       	movw	r22, r14
    296a:	90 e0       	ldi	r25, 0x00	; 0
    296c:	0e 94 9c 18 	call	0x3138	; 0x3138 <fputc>
    2970:	b7 01       	movw	r22, r14
    2972:	c6 01       	movw	r24, r12
    2974:	c0 96       	adiw	r24, 0x30	; 48
    2976:	0e 94 9c 18 	call	0x3138	; 0x3138 <fputc>
    297a:	41 c1       	rjmp	.+642    	; 0x2bfe <vfprintf+0x6ce>
    297c:	83 36       	cpi	r24, 0x63	; 99
    297e:	31 f0       	breq	.+12     	; 0x298c <vfprintf+0x45c>
    2980:	83 37       	cpi	r24, 0x73	; 115
    2982:	79 f0       	breq	.+30     	; 0x29a2 <vfprintf+0x472>
    2984:	83 35       	cpi	r24, 0x53	; 83
    2986:	09 f0       	breq	.+2      	; 0x298a <vfprintf+0x45a>
    2988:	58 c0       	rjmp	.+176    	; 0x2a3a <vfprintf+0x50a>
    298a:	21 c0       	rjmp	.+66     	; 0x29ce <vfprintf+0x49e>
    298c:	56 01       	movw	r10, r12
    298e:	72 e0       	ldi	r23, 0x02	; 2
    2990:	a7 0e       	add	r10, r23
    2992:	b1 1c       	adc	r11, r1
    2994:	f6 01       	movw	r30, r12
    2996:	80 81       	ld	r24, Z
    2998:	89 83       	std	Y+1, r24	; 0x01
    299a:	01 e0       	ldi	r16, 0x01	; 1
    299c:	10 e0       	ldi	r17, 0x00	; 0
    299e:	64 01       	movw	r12, r8
    29a0:	14 c0       	rjmp	.+40     	; 0x29ca <vfprintf+0x49a>
    29a2:	56 01       	movw	r10, r12
    29a4:	f2 e0       	ldi	r31, 0x02	; 2
    29a6:	af 0e       	add	r10, r31
    29a8:	b1 1c       	adc	r11, r1
    29aa:	f6 01       	movw	r30, r12
    29ac:	c0 80       	ld	r12, Z
    29ae:	d1 80       	ldd	r13, Z+1	; 0x01
    29b0:	26 ff       	sbrs	r18, 6
    29b2:	03 c0       	rjmp	.+6      	; 0x29ba <vfprintf+0x48a>
    29b4:	61 2f       	mov	r22, r17
    29b6:	70 e0       	ldi	r23, 0x00	; 0
    29b8:	02 c0       	rjmp	.+4      	; 0x29be <vfprintf+0x48e>
    29ba:	6f ef       	ldi	r22, 0xFF	; 255
    29bc:	7f ef       	ldi	r23, 0xFF	; 255
    29be:	c6 01       	movw	r24, r12
    29c0:	2b 8b       	std	Y+19, r18	; 0x13
    29c2:	0e 94 91 18 	call	0x3122	; 0x3122 <strnlen>
    29c6:	8c 01       	movw	r16, r24
    29c8:	2b 89       	ldd	r18, Y+19	; 0x13
    29ca:	2f 77       	andi	r18, 0x7F	; 127
    29cc:	15 c0       	rjmp	.+42     	; 0x29f8 <vfprintf+0x4c8>
    29ce:	56 01       	movw	r10, r12
    29d0:	f2 e0       	ldi	r31, 0x02	; 2
    29d2:	af 0e       	add	r10, r31
    29d4:	b1 1c       	adc	r11, r1
    29d6:	f6 01       	movw	r30, r12
    29d8:	c0 80       	ld	r12, Z
    29da:	d1 80       	ldd	r13, Z+1	; 0x01
    29dc:	26 ff       	sbrs	r18, 6
    29de:	03 c0       	rjmp	.+6      	; 0x29e6 <vfprintf+0x4b6>
    29e0:	61 2f       	mov	r22, r17
    29e2:	70 e0       	ldi	r23, 0x00	; 0
    29e4:	02 c0       	rjmp	.+4      	; 0x29ea <vfprintf+0x4ba>
    29e6:	6f ef       	ldi	r22, 0xFF	; 255
    29e8:	7f ef       	ldi	r23, 0xFF	; 255
    29ea:	c6 01       	movw	r24, r12
    29ec:	2b 8b       	std	Y+19, r18	; 0x13
    29ee:	0e 94 86 18 	call	0x310c	; 0x310c <strnlen_P>
    29f2:	8c 01       	movw	r16, r24
    29f4:	2b 89       	ldd	r18, Y+19	; 0x13
    29f6:	20 68       	ori	r18, 0x80	; 128
    29f8:	72 2e       	mov	r7, r18
    29fa:	23 fd       	sbrc	r18, 3
    29fc:	1a c0       	rjmp	.+52     	; 0x2a32 <vfprintf+0x502>
    29fe:	85 2d       	mov	r24, r5
    2a00:	90 e0       	ldi	r25, 0x00	; 0
    2a02:	08 17       	cp	r16, r24
    2a04:	19 07       	cpc	r17, r25
    2a06:	a8 f4       	brcc	.+42     	; 0x2a32 <vfprintf+0x502>
    2a08:	b7 01       	movw	r22, r14
    2a0a:	80 e2       	ldi	r24, 0x20	; 32
    2a0c:	90 e0       	ldi	r25, 0x00	; 0
    2a0e:	0e 94 9c 18 	call	0x3138	; 0x3138 <fputc>
    2a12:	5a 94       	dec	r5
    2a14:	f4 cf       	rjmp	.-24     	; 0x29fe <vfprintf+0x4ce>
    2a16:	f6 01       	movw	r30, r12
    2a18:	77 fc       	sbrc	r7, 7
    2a1a:	85 91       	lpm	r24, Z+
    2a1c:	77 fe       	sbrs	r7, 7
    2a1e:	81 91       	ld	r24, Z+
    2a20:	6f 01       	movw	r12, r30
    2a22:	b7 01       	movw	r22, r14
    2a24:	90 e0       	ldi	r25, 0x00	; 0
    2a26:	0e 94 9c 18 	call	0x3138	; 0x3138 <fputc>
    2a2a:	51 10       	cpse	r5, r1
    2a2c:	5a 94       	dec	r5
    2a2e:	01 50       	subi	r16, 0x01	; 1
    2a30:	11 09       	sbc	r17, r1
    2a32:	01 15       	cp	r16, r1
    2a34:	11 05       	cpc	r17, r1
    2a36:	79 f7       	brne	.-34     	; 0x2a16 <vfprintf+0x4e6>
    2a38:	e2 c0       	rjmp	.+452    	; 0x2bfe <vfprintf+0x6ce>
    2a3a:	84 36       	cpi	r24, 0x64	; 100
    2a3c:	11 f0       	breq	.+4      	; 0x2a42 <vfprintf+0x512>
    2a3e:	89 36       	cpi	r24, 0x69	; 105
    2a40:	51 f5       	brne	.+84     	; 0x2a96 <vfprintf+0x566>
    2a42:	56 01       	movw	r10, r12
    2a44:	27 ff       	sbrs	r18, 7
    2a46:	09 c0       	rjmp	.+18     	; 0x2a5a <vfprintf+0x52a>
    2a48:	f4 e0       	ldi	r31, 0x04	; 4
    2a4a:	af 0e       	add	r10, r31
    2a4c:	b1 1c       	adc	r11, r1
    2a4e:	f6 01       	movw	r30, r12
    2a50:	60 81       	ld	r22, Z
    2a52:	71 81       	ldd	r23, Z+1	; 0x01
    2a54:	82 81       	ldd	r24, Z+2	; 0x02
    2a56:	93 81       	ldd	r25, Z+3	; 0x03
    2a58:	0a c0       	rjmp	.+20     	; 0x2a6e <vfprintf+0x53e>
    2a5a:	f2 e0       	ldi	r31, 0x02	; 2
    2a5c:	af 0e       	add	r10, r31
    2a5e:	b1 1c       	adc	r11, r1
    2a60:	f6 01       	movw	r30, r12
    2a62:	60 81       	ld	r22, Z
    2a64:	71 81       	ldd	r23, Z+1	; 0x01
    2a66:	88 27       	eor	r24, r24
    2a68:	77 fd       	sbrc	r23, 7
    2a6a:	80 95       	com	r24
    2a6c:	98 2f       	mov	r25, r24
    2a6e:	02 2f       	mov	r16, r18
    2a70:	0f 76       	andi	r16, 0x6F	; 111
    2a72:	97 ff       	sbrs	r25, 7
    2a74:	08 c0       	rjmp	.+16     	; 0x2a86 <vfprintf+0x556>
    2a76:	90 95       	com	r25
    2a78:	80 95       	com	r24
    2a7a:	70 95       	com	r23
    2a7c:	61 95       	neg	r22
    2a7e:	7f 4f       	sbci	r23, 0xFF	; 255
    2a80:	8f 4f       	sbci	r24, 0xFF	; 255
    2a82:	9f 4f       	sbci	r25, 0xFF	; 255
    2a84:	00 68       	ori	r16, 0x80	; 128
    2a86:	2a e0       	ldi	r18, 0x0A	; 10
    2a88:	30 e0       	ldi	r19, 0x00	; 0
    2a8a:	a4 01       	movw	r20, r8
    2a8c:	0e 94 18 19 	call	0x3230	; 0x3230 <__ultoa_invert>
    2a90:	c8 2e       	mov	r12, r24
    2a92:	c8 18       	sub	r12, r8
    2a94:	3e c0       	rjmp	.+124    	; 0x2b12 <vfprintf+0x5e2>
    2a96:	02 2f       	mov	r16, r18
    2a98:	85 37       	cpi	r24, 0x75	; 117
    2a9a:	21 f4       	brne	.+8      	; 0x2aa4 <vfprintf+0x574>
    2a9c:	0f 7e       	andi	r16, 0xEF	; 239
    2a9e:	2a e0       	ldi	r18, 0x0A	; 10
    2aa0:	30 e0       	ldi	r19, 0x00	; 0
    2aa2:	1d c0       	rjmp	.+58     	; 0x2ade <vfprintf+0x5ae>
    2aa4:	09 7f       	andi	r16, 0xF9	; 249
    2aa6:	8f 36       	cpi	r24, 0x6F	; 111
    2aa8:	91 f0       	breq	.+36     	; 0x2ace <vfprintf+0x59e>
    2aaa:	18 f4       	brcc	.+6      	; 0x2ab2 <vfprintf+0x582>
    2aac:	88 35       	cpi	r24, 0x58	; 88
    2aae:	59 f0       	breq	.+22     	; 0x2ac6 <vfprintf+0x596>
    2ab0:	b0 c0       	rjmp	.+352    	; 0x2c12 <vfprintf+0x6e2>
    2ab2:	80 37       	cpi	r24, 0x70	; 112
    2ab4:	19 f0       	breq	.+6      	; 0x2abc <vfprintf+0x58c>
    2ab6:	88 37       	cpi	r24, 0x78	; 120
    2ab8:	11 f0       	breq	.+4      	; 0x2abe <vfprintf+0x58e>
    2aba:	ab c0       	rjmp	.+342    	; 0x2c12 <vfprintf+0x6e2>
    2abc:	00 61       	ori	r16, 0x10	; 16
    2abe:	04 ff       	sbrs	r16, 4
    2ac0:	09 c0       	rjmp	.+18     	; 0x2ad4 <vfprintf+0x5a4>
    2ac2:	04 60       	ori	r16, 0x04	; 4
    2ac4:	07 c0       	rjmp	.+14     	; 0x2ad4 <vfprintf+0x5a4>
    2ac6:	24 ff       	sbrs	r18, 4
    2ac8:	08 c0       	rjmp	.+16     	; 0x2ada <vfprintf+0x5aa>
    2aca:	06 60       	ori	r16, 0x06	; 6
    2acc:	06 c0       	rjmp	.+12     	; 0x2ada <vfprintf+0x5aa>
    2ace:	28 e0       	ldi	r18, 0x08	; 8
    2ad0:	30 e0       	ldi	r19, 0x00	; 0
    2ad2:	05 c0       	rjmp	.+10     	; 0x2ade <vfprintf+0x5ae>
    2ad4:	20 e1       	ldi	r18, 0x10	; 16
    2ad6:	30 e0       	ldi	r19, 0x00	; 0
    2ad8:	02 c0       	rjmp	.+4      	; 0x2ade <vfprintf+0x5ae>
    2ada:	20 e1       	ldi	r18, 0x10	; 16
    2adc:	32 e0       	ldi	r19, 0x02	; 2
    2ade:	56 01       	movw	r10, r12
    2ae0:	07 ff       	sbrs	r16, 7
    2ae2:	09 c0       	rjmp	.+18     	; 0x2af6 <vfprintf+0x5c6>
    2ae4:	f4 e0       	ldi	r31, 0x04	; 4
    2ae6:	af 0e       	add	r10, r31
    2ae8:	b1 1c       	adc	r11, r1
    2aea:	f6 01       	movw	r30, r12
    2aec:	60 81       	ld	r22, Z
    2aee:	71 81       	ldd	r23, Z+1	; 0x01
    2af0:	82 81       	ldd	r24, Z+2	; 0x02
    2af2:	93 81       	ldd	r25, Z+3	; 0x03
    2af4:	08 c0       	rjmp	.+16     	; 0x2b06 <vfprintf+0x5d6>
    2af6:	f2 e0       	ldi	r31, 0x02	; 2
    2af8:	af 0e       	add	r10, r31
    2afa:	b1 1c       	adc	r11, r1
    2afc:	f6 01       	movw	r30, r12
    2afe:	60 81       	ld	r22, Z
    2b00:	71 81       	ldd	r23, Z+1	; 0x01
    2b02:	80 e0       	ldi	r24, 0x00	; 0
    2b04:	90 e0       	ldi	r25, 0x00	; 0
    2b06:	a4 01       	movw	r20, r8
    2b08:	0e 94 18 19 	call	0x3230	; 0x3230 <__ultoa_invert>
    2b0c:	c8 2e       	mov	r12, r24
    2b0e:	c8 18       	sub	r12, r8
    2b10:	0f 77       	andi	r16, 0x7F	; 127
    2b12:	06 ff       	sbrs	r16, 6
    2b14:	0b c0       	rjmp	.+22     	; 0x2b2c <vfprintf+0x5fc>
    2b16:	20 2f       	mov	r18, r16
    2b18:	2e 7f       	andi	r18, 0xFE	; 254
    2b1a:	c1 16       	cp	r12, r17
    2b1c:	50 f4       	brcc	.+20     	; 0x2b32 <vfprintf+0x602>
    2b1e:	04 ff       	sbrs	r16, 4
    2b20:	0a c0       	rjmp	.+20     	; 0x2b36 <vfprintf+0x606>
    2b22:	02 fd       	sbrc	r16, 2
    2b24:	08 c0       	rjmp	.+16     	; 0x2b36 <vfprintf+0x606>
    2b26:	20 2f       	mov	r18, r16
    2b28:	2e 7e       	andi	r18, 0xEE	; 238
    2b2a:	05 c0       	rjmp	.+10     	; 0x2b36 <vfprintf+0x606>
    2b2c:	dc 2c       	mov	r13, r12
    2b2e:	20 2f       	mov	r18, r16
    2b30:	03 c0       	rjmp	.+6      	; 0x2b38 <vfprintf+0x608>
    2b32:	dc 2c       	mov	r13, r12
    2b34:	01 c0       	rjmp	.+2      	; 0x2b38 <vfprintf+0x608>
    2b36:	d1 2e       	mov	r13, r17
    2b38:	24 ff       	sbrs	r18, 4
    2b3a:	0d c0       	rjmp	.+26     	; 0x2b56 <vfprintf+0x626>
    2b3c:	fe 01       	movw	r30, r28
    2b3e:	ec 0d       	add	r30, r12
    2b40:	f1 1d       	adc	r31, r1
    2b42:	80 81       	ld	r24, Z
    2b44:	80 33       	cpi	r24, 0x30	; 48
    2b46:	11 f4       	brne	.+4      	; 0x2b4c <vfprintf+0x61c>
    2b48:	29 7e       	andi	r18, 0xE9	; 233
    2b4a:	09 c0       	rjmp	.+18     	; 0x2b5e <vfprintf+0x62e>
    2b4c:	22 ff       	sbrs	r18, 2
    2b4e:	06 c0       	rjmp	.+12     	; 0x2b5c <vfprintf+0x62c>
    2b50:	d3 94       	inc	r13
    2b52:	d3 94       	inc	r13
    2b54:	04 c0       	rjmp	.+8      	; 0x2b5e <vfprintf+0x62e>
    2b56:	82 2f       	mov	r24, r18
    2b58:	86 78       	andi	r24, 0x86	; 134
    2b5a:	09 f0       	breq	.+2      	; 0x2b5e <vfprintf+0x62e>
    2b5c:	d3 94       	inc	r13
    2b5e:	23 fd       	sbrc	r18, 3
    2b60:	13 c0       	rjmp	.+38     	; 0x2b88 <vfprintf+0x658>
    2b62:	20 ff       	sbrs	r18, 0
    2b64:	06 c0       	rjmp	.+12     	; 0x2b72 <vfprintf+0x642>
    2b66:	1c 2d       	mov	r17, r12
    2b68:	d5 14       	cp	r13, r5
    2b6a:	18 f4       	brcc	.+6      	; 0x2b72 <vfprintf+0x642>
    2b6c:	15 0d       	add	r17, r5
    2b6e:	1d 19       	sub	r17, r13
    2b70:	d5 2c       	mov	r13, r5
    2b72:	d5 14       	cp	r13, r5
    2b74:	68 f4       	brcc	.+26     	; 0x2b90 <vfprintf+0x660>
    2b76:	b7 01       	movw	r22, r14
    2b78:	80 e2       	ldi	r24, 0x20	; 32
    2b7a:	90 e0       	ldi	r25, 0x00	; 0
    2b7c:	2b 8b       	std	Y+19, r18	; 0x13
    2b7e:	0e 94 9c 18 	call	0x3138	; 0x3138 <fputc>
    2b82:	d3 94       	inc	r13
    2b84:	2b 89       	ldd	r18, Y+19	; 0x13
    2b86:	f5 cf       	rjmp	.-22     	; 0x2b72 <vfprintf+0x642>
    2b88:	d5 14       	cp	r13, r5
    2b8a:	10 f4       	brcc	.+4      	; 0x2b90 <vfprintf+0x660>
    2b8c:	5d 18       	sub	r5, r13
    2b8e:	01 c0       	rjmp	.+2      	; 0x2b92 <vfprintf+0x662>
    2b90:	51 2c       	mov	r5, r1
    2b92:	24 ff       	sbrs	r18, 4
    2b94:	12 c0       	rjmp	.+36     	; 0x2bba <vfprintf+0x68a>
    2b96:	b7 01       	movw	r22, r14
    2b98:	80 e3       	ldi	r24, 0x30	; 48
    2b9a:	90 e0       	ldi	r25, 0x00	; 0
    2b9c:	2b 8b       	std	Y+19, r18	; 0x13
    2b9e:	0e 94 9c 18 	call	0x3138	; 0x3138 <fputc>
    2ba2:	2b 89       	ldd	r18, Y+19	; 0x13
    2ba4:	22 ff       	sbrs	r18, 2
    2ba6:	17 c0       	rjmp	.+46     	; 0x2bd6 <vfprintf+0x6a6>
    2ba8:	21 ff       	sbrs	r18, 1
    2baa:	03 c0       	rjmp	.+6      	; 0x2bb2 <vfprintf+0x682>
    2bac:	88 e5       	ldi	r24, 0x58	; 88
    2bae:	90 e0       	ldi	r25, 0x00	; 0
    2bb0:	02 c0       	rjmp	.+4      	; 0x2bb6 <vfprintf+0x686>
    2bb2:	88 e7       	ldi	r24, 0x78	; 120
    2bb4:	90 e0       	ldi	r25, 0x00	; 0
    2bb6:	b7 01       	movw	r22, r14
    2bb8:	0c c0       	rjmp	.+24     	; 0x2bd2 <vfprintf+0x6a2>
    2bba:	82 2f       	mov	r24, r18
    2bbc:	86 78       	andi	r24, 0x86	; 134
    2bbe:	59 f0       	breq	.+22     	; 0x2bd6 <vfprintf+0x6a6>
    2bc0:	21 fd       	sbrc	r18, 1
    2bc2:	02 c0       	rjmp	.+4      	; 0x2bc8 <vfprintf+0x698>
    2bc4:	80 e2       	ldi	r24, 0x20	; 32
    2bc6:	01 c0       	rjmp	.+2      	; 0x2bca <vfprintf+0x69a>
    2bc8:	8b e2       	ldi	r24, 0x2B	; 43
    2bca:	27 fd       	sbrc	r18, 7
    2bcc:	8d e2       	ldi	r24, 0x2D	; 45
    2bce:	b7 01       	movw	r22, r14
    2bd0:	90 e0       	ldi	r25, 0x00	; 0
    2bd2:	0e 94 9c 18 	call	0x3138	; 0x3138 <fputc>
    2bd6:	c1 16       	cp	r12, r17
    2bd8:	38 f4       	brcc	.+14     	; 0x2be8 <vfprintf+0x6b8>
    2bda:	b7 01       	movw	r22, r14
    2bdc:	80 e3       	ldi	r24, 0x30	; 48
    2bde:	90 e0       	ldi	r25, 0x00	; 0
    2be0:	0e 94 9c 18 	call	0x3138	; 0x3138 <fputc>
    2be4:	11 50       	subi	r17, 0x01	; 1
    2be6:	f7 cf       	rjmp	.-18     	; 0x2bd6 <vfprintf+0x6a6>
    2be8:	ca 94       	dec	r12
    2bea:	f4 01       	movw	r30, r8
    2bec:	ec 0d       	add	r30, r12
    2bee:	f1 1d       	adc	r31, r1
    2bf0:	80 81       	ld	r24, Z
    2bf2:	b7 01       	movw	r22, r14
    2bf4:	90 e0       	ldi	r25, 0x00	; 0
    2bf6:	0e 94 9c 18 	call	0x3138	; 0x3138 <fputc>
    2bfa:	c1 10       	cpse	r12, r1
    2bfc:	f5 cf       	rjmp	.-22     	; 0x2be8 <vfprintf+0x6b8>
    2bfe:	55 20       	and	r5, r5
    2c00:	09 f4       	brne	.+2      	; 0x2c04 <vfprintf+0x6d4>
    2c02:	c2 cc       	rjmp	.-1660   	; 0x2588 <vfprintf+0x58>
    2c04:	b7 01       	movw	r22, r14
    2c06:	80 e2       	ldi	r24, 0x20	; 32
    2c08:	90 e0       	ldi	r25, 0x00	; 0
    2c0a:	0e 94 9c 18 	call	0x3138	; 0x3138 <fputc>
    2c0e:	5a 94       	dec	r5
    2c10:	f6 cf       	rjmp	.-20     	; 0x2bfe <vfprintf+0x6ce>
    2c12:	f7 01       	movw	r30, r14
    2c14:	86 81       	ldd	r24, Z+6	; 0x06
    2c16:	97 81       	ldd	r25, Z+7	; 0x07
    2c18:	02 c0       	rjmp	.+4      	; 0x2c1e <vfprintf+0x6ee>
    2c1a:	8f ef       	ldi	r24, 0xFF	; 255
    2c1c:	9f ef       	ldi	r25, 0xFF	; 255
    2c1e:	63 96       	adiw	r28, 0x13	; 19
    2c20:	e2 e1       	ldi	r30, 0x12	; 18
    2c22:	0c 94 93 17 	jmp	0x2f26	; 0x2f26 <__epilogue_restores__>

00002c26 <__fixsfsi>:
    2c26:	04 d0       	rcall	.+8      	; 0x2c30 <__fixunssfsi>
    2c28:	68 94       	set
    2c2a:	b1 11       	cpse	r27, r1
    2c2c:	8d c0       	rjmp	.+282    	; 0x2d48 <__fp_szero>
    2c2e:	08 95       	ret

00002c30 <__fixunssfsi>:
    2c30:	70 d0       	rcall	.+224    	; 0x2d12 <__fp_splitA>
    2c32:	88 f0       	brcs	.+34     	; 0x2c56 <__fixunssfsi+0x26>
    2c34:	9f 57       	subi	r25, 0x7F	; 127
    2c36:	90 f0       	brcs	.+36     	; 0x2c5c <__fixunssfsi+0x2c>
    2c38:	b9 2f       	mov	r27, r25
    2c3a:	99 27       	eor	r25, r25
    2c3c:	b7 51       	subi	r27, 0x17	; 23
    2c3e:	a0 f0       	brcs	.+40     	; 0x2c68 <__fixunssfsi+0x38>
    2c40:	d1 f0       	breq	.+52     	; 0x2c76 <__fixunssfsi+0x46>
    2c42:	66 0f       	add	r22, r22
    2c44:	77 1f       	adc	r23, r23
    2c46:	88 1f       	adc	r24, r24
    2c48:	99 1f       	adc	r25, r25
    2c4a:	1a f0       	brmi	.+6      	; 0x2c52 <__fixunssfsi+0x22>
    2c4c:	ba 95       	dec	r27
    2c4e:	c9 f7       	brne	.-14     	; 0x2c42 <__fixunssfsi+0x12>
    2c50:	12 c0       	rjmp	.+36     	; 0x2c76 <__fixunssfsi+0x46>
    2c52:	b1 30       	cpi	r27, 0x01	; 1
    2c54:	81 f0       	breq	.+32     	; 0x2c76 <__fixunssfsi+0x46>
    2c56:	77 d0       	rcall	.+238    	; 0x2d46 <__fp_zero>
    2c58:	b1 e0       	ldi	r27, 0x01	; 1
    2c5a:	08 95       	ret
    2c5c:	74 c0       	rjmp	.+232    	; 0x2d46 <__fp_zero>
    2c5e:	67 2f       	mov	r22, r23
    2c60:	78 2f       	mov	r23, r24
    2c62:	88 27       	eor	r24, r24
    2c64:	b8 5f       	subi	r27, 0xF8	; 248
    2c66:	39 f0       	breq	.+14     	; 0x2c76 <__fixunssfsi+0x46>
    2c68:	b9 3f       	cpi	r27, 0xF9	; 249
    2c6a:	cc f3       	brlt	.-14     	; 0x2c5e <__fixunssfsi+0x2e>
    2c6c:	86 95       	lsr	r24
    2c6e:	77 95       	ror	r23
    2c70:	67 95       	ror	r22
    2c72:	b3 95       	inc	r27
    2c74:	d9 f7       	brne	.-10     	; 0x2c6c <__fixunssfsi+0x3c>
    2c76:	3e f4       	brtc	.+14     	; 0x2c86 <__fixunssfsi+0x56>
    2c78:	90 95       	com	r25
    2c7a:	80 95       	com	r24
    2c7c:	70 95       	com	r23
    2c7e:	61 95       	neg	r22
    2c80:	7f 4f       	sbci	r23, 0xFF	; 255
    2c82:	8f 4f       	sbci	r24, 0xFF	; 255
    2c84:	9f 4f       	sbci	r25, 0xFF	; 255
    2c86:	08 95       	ret

00002c88 <__floatunsisf>:
    2c88:	e8 94       	clt
    2c8a:	09 c0       	rjmp	.+18     	; 0x2c9e <__floatsisf+0x12>

00002c8c <__floatsisf>:
    2c8c:	97 fb       	bst	r25, 7
    2c8e:	3e f4       	brtc	.+14     	; 0x2c9e <__floatsisf+0x12>
    2c90:	90 95       	com	r25
    2c92:	80 95       	com	r24
    2c94:	70 95       	com	r23
    2c96:	61 95       	neg	r22
    2c98:	7f 4f       	sbci	r23, 0xFF	; 255
    2c9a:	8f 4f       	sbci	r24, 0xFF	; 255
    2c9c:	9f 4f       	sbci	r25, 0xFF	; 255
    2c9e:	99 23       	and	r25, r25
    2ca0:	a9 f0       	breq	.+42     	; 0x2ccc <__floatsisf+0x40>
    2ca2:	f9 2f       	mov	r31, r25
    2ca4:	96 e9       	ldi	r25, 0x96	; 150
    2ca6:	bb 27       	eor	r27, r27
    2ca8:	93 95       	inc	r25
    2caa:	f6 95       	lsr	r31
    2cac:	87 95       	ror	r24
    2cae:	77 95       	ror	r23
    2cb0:	67 95       	ror	r22
    2cb2:	b7 95       	ror	r27
    2cb4:	f1 11       	cpse	r31, r1
    2cb6:	f8 cf       	rjmp	.-16     	; 0x2ca8 <__floatsisf+0x1c>
    2cb8:	fa f4       	brpl	.+62     	; 0x2cf8 <__floatsisf+0x6c>
    2cba:	bb 0f       	add	r27, r27
    2cbc:	11 f4       	brne	.+4      	; 0x2cc2 <__floatsisf+0x36>
    2cbe:	60 ff       	sbrs	r22, 0
    2cc0:	1b c0       	rjmp	.+54     	; 0x2cf8 <__floatsisf+0x6c>
    2cc2:	6f 5f       	subi	r22, 0xFF	; 255
    2cc4:	7f 4f       	sbci	r23, 0xFF	; 255
    2cc6:	8f 4f       	sbci	r24, 0xFF	; 255
    2cc8:	9f 4f       	sbci	r25, 0xFF	; 255
    2cca:	16 c0       	rjmp	.+44     	; 0x2cf8 <__floatsisf+0x6c>
    2ccc:	88 23       	and	r24, r24
    2cce:	11 f0       	breq	.+4      	; 0x2cd4 <__floatsisf+0x48>
    2cd0:	96 e9       	ldi	r25, 0x96	; 150
    2cd2:	11 c0       	rjmp	.+34     	; 0x2cf6 <__floatsisf+0x6a>
    2cd4:	77 23       	and	r23, r23
    2cd6:	21 f0       	breq	.+8      	; 0x2ce0 <__floatsisf+0x54>
    2cd8:	9e e8       	ldi	r25, 0x8E	; 142
    2cda:	87 2f       	mov	r24, r23
    2cdc:	76 2f       	mov	r23, r22
    2cde:	05 c0       	rjmp	.+10     	; 0x2cea <__floatsisf+0x5e>
    2ce0:	66 23       	and	r22, r22
    2ce2:	71 f0       	breq	.+28     	; 0x2d00 <__floatsisf+0x74>
    2ce4:	96 e8       	ldi	r25, 0x86	; 134
    2ce6:	86 2f       	mov	r24, r22
    2ce8:	70 e0       	ldi	r23, 0x00	; 0
    2cea:	60 e0       	ldi	r22, 0x00	; 0
    2cec:	2a f0       	brmi	.+10     	; 0x2cf8 <__floatsisf+0x6c>
    2cee:	9a 95       	dec	r25
    2cf0:	66 0f       	add	r22, r22
    2cf2:	77 1f       	adc	r23, r23
    2cf4:	88 1f       	adc	r24, r24
    2cf6:	da f7       	brpl	.-10     	; 0x2cee <__floatsisf+0x62>
    2cf8:	88 0f       	add	r24, r24
    2cfa:	96 95       	lsr	r25
    2cfc:	87 95       	ror	r24
    2cfe:	97 f9       	bld	r25, 7
    2d00:	08 95       	ret

00002d02 <__fp_split3>:
    2d02:	57 fd       	sbrc	r21, 7
    2d04:	90 58       	subi	r25, 0x80	; 128
    2d06:	44 0f       	add	r20, r20
    2d08:	55 1f       	adc	r21, r21
    2d0a:	59 f0       	breq	.+22     	; 0x2d22 <__fp_splitA+0x10>
    2d0c:	5f 3f       	cpi	r21, 0xFF	; 255
    2d0e:	71 f0       	breq	.+28     	; 0x2d2c <__fp_splitA+0x1a>
    2d10:	47 95       	ror	r20

00002d12 <__fp_splitA>:
    2d12:	88 0f       	add	r24, r24
    2d14:	97 fb       	bst	r25, 7
    2d16:	99 1f       	adc	r25, r25
    2d18:	61 f0       	breq	.+24     	; 0x2d32 <__fp_splitA+0x20>
    2d1a:	9f 3f       	cpi	r25, 0xFF	; 255
    2d1c:	79 f0       	breq	.+30     	; 0x2d3c <__fp_splitA+0x2a>
    2d1e:	87 95       	ror	r24
    2d20:	08 95       	ret
    2d22:	12 16       	cp	r1, r18
    2d24:	13 06       	cpc	r1, r19
    2d26:	14 06       	cpc	r1, r20
    2d28:	55 1f       	adc	r21, r21
    2d2a:	f2 cf       	rjmp	.-28     	; 0x2d10 <__fp_split3+0xe>
    2d2c:	46 95       	lsr	r20
    2d2e:	f1 df       	rcall	.-30     	; 0x2d12 <__fp_splitA>
    2d30:	08 c0       	rjmp	.+16     	; 0x2d42 <__fp_splitA+0x30>
    2d32:	16 16       	cp	r1, r22
    2d34:	17 06       	cpc	r1, r23
    2d36:	18 06       	cpc	r1, r24
    2d38:	99 1f       	adc	r25, r25
    2d3a:	f1 cf       	rjmp	.-30     	; 0x2d1e <__fp_splitA+0xc>
    2d3c:	86 95       	lsr	r24
    2d3e:	71 05       	cpc	r23, r1
    2d40:	61 05       	cpc	r22, r1
    2d42:	08 94       	sec
    2d44:	08 95       	ret

00002d46 <__fp_zero>:
    2d46:	e8 94       	clt

00002d48 <__fp_szero>:
    2d48:	bb 27       	eor	r27, r27
    2d4a:	66 27       	eor	r22, r22
    2d4c:	77 27       	eor	r23, r23
    2d4e:	cb 01       	movw	r24, r22
    2d50:	97 f9       	bld	r25, 7
    2d52:	08 95       	ret

00002d54 <__mulsf3>:
    2d54:	0b d0       	rcall	.+22     	; 0x2d6c <__mulsf3x>
    2d56:	78 c0       	rjmp	.+240    	; 0x2e48 <__fp_round>
    2d58:	69 d0       	rcall	.+210    	; 0x2e2c <__fp_pscA>
    2d5a:	28 f0       	brcs	.+10     	; 0x2d66 <__mulsf3+0x12>
    2d5c:	6e d0       	rcall	.+220    	; 0x2e3a <__fp_pscB>
    2d5e:	18 f0       	brcs	.+6      	; 0x2d66 <__mulsf3+0x12>
    2d60:	95 23       	and	r25, r21
    2d62:	09 f0       	breq	.+2      	; 0x2d66 <__mulsf3+0x12>
    2d64:	5a c0       	rjmp	.+180    	; 0x2e1a <__fp_inf>
    2d66:	5f c0       	rjmp	.+190    	; 0x2e26 <__fp_nan>
    2d68:	11 24       	eor	r1, r1
    2d6a:	ee cf       	rjmp	.-36     	; 0x2d48 <__fp_szero>

00002d6c <__mulsf3x>:
    2d6c:	ca df       	rcall	.-108    	; 0x2d02 <__fp_split3>
    2d6e:	a0 f3       	brcs	.-24     	; 0x2d58 <__mulsf3+0x4>

00002d70 <__mulsf3_pse>:
    2d70:	95 9f       	mul	r25, r21
    2d72:	d1 f3       	breq	.-12     	; 0x2d68 <__mulsf3+0x14>
    2d74:	95 0f       	add	r25, r21
    2d76:	50 e0       	ldi	r21, 0x00	; 0
    2d78:	55 1f       	adc	r21, r21
    2d7a:	62 9f       	mul	r22, r18
    2d7c:	f0 01       	movw	r30, r0
    2d7e:	72 9f       	mul	r23, r18
    2d80:	bb 27       	eor	r27, r27
    2d82:	f0 0d       	add	r31, r0
    2d84:	b1 1d       	adc	r27, r1
    2d86:	63 9f       	mul	r22, r19
    2d88:	aa 27       	eor	r26, r26
    2d8a:	f0 0d       	add	r31, r0
    2d8c:	b1 1d       	adc	r27, r1
    2d8e:	aa 1f       	adc	r26, r26
    2d90:	64 9f       	mul	r22, r20
    2d92:	66 27       	eor	r22, r22
    2d94:	b0 0d       	add	r27, r0
    2d96:	a1 1d       	adc	r26, r1
    2d98:	66 1f       	adc	r22, r22
    2d9a:	82 9f       	mul	r24, r18
    2d9c:	22 27       	eor	r18, r18
    2d9e:	b0 0d       	add	r27, r0
    2da0:	a1 1d       	adc	r26, r1
    2da2:	62 1f       	adc	r22, r18
    2da4:	73 9f       	mul	r23, r19
    2da6:	b0 0d       	add	r27, r0
    2da8:	a1 1d       	adc	r26, r1
    2daa:	62 1f       	adc	r22, r18
    2dac:	83 9f       	mul	r24, r19
    2dae:	a0 0d       	add	r26, r0
    2db0:	61 1d       	adc	r22, r1
    2db2:	22 1f       	adc	r18, r18
    2db4:	74 9f       	mul	r23, r20
    2db6:	33 27       	eor	r19, r19
    2db8:	a0 0d       	add	r26, r0
    2dba:	61 1d       	adc	r22, r1
    2dbc:	23 1f       	adc	r18, r19
    2dbe:	84 9f       	mul	r24, r20
    2dc0:	60 0d       	add	r22, r0
    2dc2:	21 1d       	adc	r18, r1
    2dc4:	82 2f       	mov	r24, r18
    2dc6:	76 2f       	mov	r23, r22
    2dc8:	6a 2f       	mov	r22, r26
    2dca:	11 24       	eor	r1, r1
    2dcc:	9f 57       	subi	r25, 0x7F	; 127
    2dce:	50 40       	sbci	r21, 0x00	; 0
    2dd0:	8a f0       	brmi	.+34     	; 0x2df4 <__mulsf3_pse+0x84>
    2dd2:	e1 f0       	breq	.+56     	; 0x2e0c <__mulsf3_pse+0x9c>
    2dd4:	88 23       	and	r24, r24
    2dd6:	4a f0       	brmi	.+18     	; 0x2dea <__mulsf3_pse+0x7a>
    2dd8:	ee 0f       	add	r30, r30
    2dda:	ff 1f       	adc	r31, r31
    2ddc:	bb 1f       	adc	r27, r27
    2dde:	66 1f       	adc	r22, r22
    2de0:	77 1f       	adc	r23, r23
    2de2:	88 1f       	adc	r24, r24
    2de4:	91 50       	subi	r25, 0x01	; 1
    2de6:	50 40       	sbci	r21, 0x00	; 0
    2de8:	a9 f7       	brne	.-22     	; 0x2dd4 <__mulsf3_pse+0x64>
    2dea:	9e 3f       	cpi	r25, 0xFE	; 254
    2dec:	51 05       	cpc	r21, r1
    2dee:	70 f0       	brcs	.+28     	; 0x2e0c <__mulsf3_pse+0x9c>
    2df0:	14 c0       	rjmp	.+40     	; 0x2e1a <__fp_inf>
    2df2:	aa cf       	rjmp	.-172    	; 0x2d48 <__fp_szero>
    2df4:	5f 3f       	cpi	r21, 0xFF	; 255
    2df6:	ec f3       	brlt	.-6      	; 0x2df2 <__mulsf3_pse+0x82>
    2df8:	98 3e       	cpi	r25, 0xE8	; 232
    2dfa:	dc f3       	brlt	.-10     	; 0x2df2 <__mulsf3_pse+0x82>
    2dfc:	86 95       	lsr	r24
    2dfe:	77 95       	ror	r23
    2e00:	67 95       	ror	r22
    2e02:	b7 95       	ror	r27
    2e04:	f7 95       	ror	r31
    2e06:	e7 95       	ror	r30
    2e08:	9f 5f       	subi	r25, 0xFF	; 255
    2e0a:	c1 f7       	brne	.-16     	; 0x2dfc <__mulsf3_pse+0x8c>
    2e0c:	fe 2b       	or	r31, r30
    2e0e:	88 0f       	add	r24, r24
    2e10:	91 1d       	adc	r25, r1
    2e12:	96 95       	lsr	r25
    2e14:	87 95       	ror	r24
    2e16:	97 f9       	bld	r25, 7
    2e18:	08 95       	ret

00002e1a <__fp_inf>:
    2e1a:	97 f9       	bld	r25, 7
    2e1c:	9f 67       	ori	r25, 0x7F	; 127
    2e1e:	80 e8       	ldi	r24, 0x80	; 128
    2e20:	70 e0       	ldi	r23, 0x00	; 0
    2e22:	60 e0       	ldi	r22, 0x00	; 0
    2e24:	08 95       	ret

00002e26 <__fp_nan>:
    2e26:	9f ef       	ldi	r25, 0xFF	; 255
    2e28:	80 ec       	ldi	r24, 0xC0	; 192
    2e2a:	08 95       	ret

00002e2c <__fp_pscA>:
    2e2c:	00 24       	eor	r0, r0
    2e2e:	0a 94       	dec	r0
    2e30:	16 16       	cp	r1, r22
    2e32:	17 06       	cpc	r1, r23
    2e34:	18 06       	cpc	r1, r24
    2e36:	09 06       	cpc	r0, r25
    2e38:	08 95       	ret

00002e3a <__fp_pscB>:
    2e3a:	00 24       	eor	r0, r0
    2e3c:	0a 94       	dec	r0
    2e3e:	12 16       	cp	r1, r18
    2e40:	13 06       	cpc	r1, r19
    2e42:	14 06       	cpc	r1, r20
    2e44:	05 06       	cpc	r0, r21
    2e46:	08 95       	ret

00002e48 <__fp_round>:
    2e48:	09 2e       	mov	r0, r25
    2e4a:	03 94       	inc	r0
    2e4c:	00 0c       	add	r0, r0
    2e4e:	11 f4       	brne	.+4      	; 0x2e54 <__fp_round+0xc>
    2e50:	88 23       	and	r24, r24
    2e52:	52 f0       	brmi	.+20     	; 0x2e68 <__fp_round+0x20>
    2e54:	bb 0f       	add	r27, r27
    2e56:	40 f4       	brcc	.+16     	; 0x2e68 <__fp_round+0x20>
    2e58:	bf 2b       	or	r27, r31
    2e5a:	11 f4       	brne	.+4      	; 0x2e60 <__fp_round+0x18>
    2e5c:	60 ff       	sbrs	r22, 0
    2e5e:	04 c0       	rjmp	.+8      	; 0x2e68 <__fp_round+0x20>
    2e60:	6f 5f       	subi	r22, 0xFF	; 255
    2e62:	7f 4f       	sbci	r23, 0xFF	; 255
    2e64:	8f 4f       	sbci	r24, 0xFF	; 255
    2e66:	9f 4f       	sbci	r25, 0xFF	; 255
    2e68:	08 95       	ret

00002e6a <__udivmodqi4>:
    2e6a:	99 1b       	sub	r25, r25
    2e6c:	79 e0       	ldi	r23, 0x09	; 9
    2e6e:	04 c0       	rjmp	.+8      	; 0x2e78 <__udivmodqi4_ep>

00002e70 <__udivmodqi4_loop>:
    2e70:	99 1f       	adc	r25, r25
    2e72:	96 17       	cp	r25, r22
    2e74:	08 f0       	brcs	.+2      	; 0x2e78 <__udivmodqi4_ep>
    2e76:	96 1b       	sub	r25, r22

00002e78 <__udivmodqi4_ep>:
    2e78:	88 1f       	adc	r24, r24
    2e7a:	7a 95       	dec	r23
    2e7c:	c9 f7       	brne	.-14     	; 0x2e70 <__udivmodqi4_loop>
    2e7e:	80 95       	com	r24
    2e80:	08 95       	ret

00002e82 <__divmodqi4>:
    2e82:	87 fb       	bst	r24, 7
    2e84:	08 2e       	mov	r0, r24
    2e86:	06 26       	eor	r0, r22
    2e88:	87 fd       	sbrc	r24, 7
    2e8a:	81 95       	neg	r24
    2e8c:	67 fd       	sbrc	r22, 7
    2e8e:	61 95       	neg	r22
    2e90:	0e 94 35 17 	call	0x2e6a	; 0x2e6a <__udivmodqi4>
    2e94:	0e f4       	brtc	.+2      	; 0x2e98 <__divmodqi4_1>
    2e96:	91 95       	neg	r25

00002e98 <__divmodqi4_1>:
    2e98:	07 fc       	sbrc	r0, 7
    2e9a:	81 95       	neg	r24

00002e9c <__divmodqi4_exit>:
    2e9c:	08 95       	ret

00002e9e <__udivmodhi4>:
    2e9e:	aa 1b       	sub	r26, r26
    2ea0:	bb 1b       	sub	r27, r27
    2ea2:	51 e1       	ldi	r21, 0x11	; 17
    2ea4:	07 c0       	rjmp	.+14     	; 0x2eb4 <__udivmodhi4_ep>

00002ea6 <__udivmodhi4_loop>:
    2ea6:	aa 1f       	adc	r26, r26
    2ea8:	bb 1f       	adc	r27, r27
    2eaa:	a6 17       	cp	r26, r22
    2eac:	b7 07       	cpc	r27, r23
    2eae:	10 f0       	brcs	.+4      	; 0x2eb4 <__udivmodhi4_ep>
    2eb0:	a6 1b       	sub	r26, r22
    2eb2:	b7 0b       	sbc	r27, r23

00002eb4 <__udivmodhi4_ep>:
    2eb4:	88 1f       	adc	r24, r24
    2eb6:	99 1f       	adc	r25, r25
    2eb8:	5a 95       	dec	r21
    2eba:	a9 f7       	brne	.-22     	; 0x2ea6 <__udivmodhi4_loop>
    2ebc:	80 95       	com	r24
    2ebe:	90 95       	com	r25
    2ec0:	bc 01       	movw	r22, r24
    2ec2:	cd 01       	movw	r24, r26
    2ec4:	08 95       	ret

00002ec6 <__divmodhi4>:
    2ec6:	97 fb       	bst	r25, 7
    2ec8:	07 2e       	mov	r0, r23
    2eca:	16 f4       	brtc	.+4      	; 0x2ed0 <__divmodhi4+0xa>
    2ecc:	00 94       	com	r0
    2ece:	07 d0       	rcall	.+14     	; 0x2ede <__divmodhi4_neg1>
    2ed0:	77 fd       	sbrc	r23, 7
    2ed2:	09 d0       	rcall	.+18     	; 0x2ee6 <__divmodhi4_neg2>
    2ed4:	0e 94 4f 17 	call	0x2e9e	; 0x2e9e <__udivmodhi4>
    2ed8:	07 fc       	sbrc	r0, 7
    2eda:	05 d0       	rcall	.+10     	; 0x2ee6 <__divmodhi4_neg2>
    2edc:	3e f4       	brtc	.+14     	; 0x2eec <__divmodhi4_exit>

00002ede <__divmodhi4_neg1>:
    2ede:	90 95       	com	r25
    2ee0:	81 95       	neg	r24
    2ee2:	9f 4f       	sbci	r25, 0xFF	; 255
    2ee4:	08 95       	ret

00002ee6 <__divmodhi4_neg2>:
    2ee6:	70 95       	com	r23
    2ee8:	61 95       	neg	r22
    2eea:	7f 4f       	sbci	r23, 0xFF	; 255

00002eec <__divmodhi4_exit>:
    2eec:	08 95       	ret

00002eee <__prologue_saves__>:
    2eee:	2f 92       	push	r2
    2ef0:	3f 92       	push	r3
    2ef2:	4f 92       	push	r4
    2ef4:	5f 92       	push	r5
    2ef6:	6f 92       	push	r6
    2ef8:	7f 92       	push	r7
    2efa:	8f 92       	push	r8
    2efc:	9f 92       	push	r9
    2efe:	af 92       	push	r10
    2f00:	bf 92       	push	r11
    2f02:	cf 92       	push	r12
    2f04:	df 92       	push	r13
    2f06:	ef 92       	push	r14
    2f08:	ff 92       	push	r15
    2f0a:	0f 93       	push	r16
    2f0c:	1f 93       	push	r17
    2f0e:	cf 93       	push	r28
    2f10:	df 93       	push	r29
    2f12:	cd b7       	in	r28, 0x3d	; 61
    2f14:	de b7       	in	r29, 0x3e	; 62
    2f16:	ca 1b       	sub	r28, r26
    2f18:	db 0b       	sbc	r29, r27
    2f1a:	0f b6       	in	r0, 0x3f	; 63
    2f1c:	f8 94       	cli
    2f1e:	de bf       	out	0x3e, r29	; 62
    2f20:	0f be       	out	0x3f, r0	; 63
    2f22:	cd bf       	out	0x3d, r28	; 61
    2f24:	09 94       	ijmp

00002f26 <__epilogue_restores__>:
    2f26:	2a 88       	ldd	r2, Y+18	; 0x12
    2f28:	39 88       	ldd	r3, Y+17	; 0x11
    2f2a:	48 88       	ldd	r4, Y+16	; 0x10
    2f2c:	5f 84       	ldd	r5, Y+15	; 0x0f
    2f2e:	6e 84       	ldd	r6, Y+14	; 0x0e
    2f30:	7d 84       	ldd	r7, Y+13	; 0x0d
    2f32:	8c 84       	ldd	r8, Y+12	; 0x0c
    2f34:	9b 84       	ldd	r9, Y+11	; 0x0b
    2f36:	aa 84       	ldd	r10, Y+10	; 0x0a
    2f38:	b9 84       	ldd	r11, Y+9	; 0x09
    2f3a:	c8 84       	ldd	r12, Y+8	; 0x08
    2f3c:	df 80       	ldd	r13, Y+7	; 0x07
    2f3e:	ee 80       	ldd	r14, Y+6	; 0x06
    2f40:	fd 80       	ldd	r15, Y+5	; 0x05
    2f42:	0c 81       	ldd	r16, Y+4	; 0x04
    2f44:	1b 81       	ldd	r17, Y+3	; 0x03
    2f46:	aa 81       	ldd	r26, Y+2	; 0x02
    2f48:	b9 81       	ldd	r27, Y+1	; 0x01
    2f4a:	ce 0f       	add	r28, r30
    2f4c:	d1 1d       	adc	r29, r1
    2f4e:	0f b6       	in	r0, 0x3f	; 63
    2f50:	f8 94       	cli
    2f52:	de bf       	out	0x3e, r29	; 62
    2f54:	0f be       	out	0x3f, r0	; 63
    2f56:	cd bf       	out	0x3d, r28	; 61
    2f58:	ed 01       	movw	r28, r26
    2f5a:	08 95       	ret

00002f5c <__ftoa_engine>:
    2f5c:	28 30       	cpi	r18, 0x08	; 8
    2f5e:	08 f0       	brcs	.+2      	; 0x2f62 <__ftoa_engine+0x6>
    2f60:	27 e0       	ldi	r18, 0x07	; 7
    2f62:	33 27       	eor	r19, r19
    2f64:	da 01       	movw	r26, r20
    2f66:	99 0f       	add	r25, r25
    2f68:	31 1d       	adc	r19, r1
    2f6a:	87 fd       	sbrc	r24, 7
    2f6c:	91 60       	ori	r25, 0x01	; 1
    2f6e:	00 96       	adiw	r24, 0x00	; 0
    2f70:	61 05       	cpc	r22, r1
    2f72:	71 05       	cpc	r23, r1
    2f74:	39 f4       	brne	.+14     	; 0x2f84 <__ftoa_engine+0x28>
    2f76:	32 60       	ori	r19, 0x02	; 2
    2f78:	2e 5f       	subi	r18, 0xFE	; 254
    2f7a:	3d 93       	st	X+, r19
    2f7c:	30 e3       	ldi	r19, 0x30	; 48
    2f7e:	2a 95       	dec	r18
    2f80:	e1 f7       	brne	.-8      	; 0x2f7a <__ftoa_engine+0x1e>
    2f82:	08 95       	ret
    2f84:	9f 3f       	cpi	r25, 0xFF	; 255
    2f86:	30 f0       	brcs	.+12     	; 0x2f94 <__ftoa_engine+0x38>
    2f88:	80 38       	cpi	r24, 0x80	; 128
    2f8a:	71 05       	cpc	r23, r1
    2f8c:	61 05       	cpc	r22, r1
    2f8e:	09 f0       	breq	.+2      	; 0x2f92 <__ftoa_engine+0x36>
    2f90:	3c 5f       	subi	r19, 0xFC	; 252
    2f92:	3c 5f       	subi	r19, 0xFC	; 252
    2f94:	3d 93       	st	X+, r19
    2f96:	91 30       	cpi	r25, 0x01	; 1
    2f98:	08 f0       	brcs	.+2      	; 0x2f9c <__ftoa_engine+0x40>
    2f9a:	80 68       	ori	r24, 0x80	; 128
    2f9c:	91 1d       	adc	r25, r1
    2f9e:	df 93       	push	r29
    2fa0:	cf 93       	push	r28
    2fa2:	1f 93       	push	r17
    2fa4:	0f 93       	push	r16
    2fa6:	ff 92       	push	r15
    2fa8:	ef 92       	push	r14
    2faa:	19 2f       	mov	r17, r25
    2fac:	98 7f       	andi	r25, 0xF8	; 248
    2fae:	96 95       	lsr	r25
    2fb0:	e9 2f       	mov	r30, r25
    2fb2:	96 95       	lsr	r25
    2fb4:	96 95       	lsr	r25
    2fb6:	e9 0f       	add	r30, r25
    2fb8:	ff 27       	eor	r31, r31
    2fba:	e2 53       	subi	r30, 0x32	; 50
    2fbc:	fc 4f       	sbci	r31, 0xFC	; 252
    2fbe:	99 27       	eor	r25, r25
    2fc0:	33 27       	eor	r19, r19
    2fc2:	ee 24       	eor	r14, r14
    2fc4:	ff 24       	eor	r15, r15
    2fc6:	a7 01       	movw	r20, r14
    2fc8:	e7 01       	movw	r28, r14
    2fca:	05 90       	lpm	r0, Z+
    2fcc:	08 94       	sec
    2fce:	07 94       	ror	r0
    2fd0:	28 f4       	brcc	.+10     	; 0x2fdc <__ftoa_engine+0x80>
    2fd2:	36 0f       	add	r19, r22
    2fd4:	e7 1e       	adc	r14, r23
    2fd6:	f8 1e       	adc	r15, r24
    2fd8:	49 1f       	adc	r20, r25
    2fda:	51 1d       	adc	r21, r1
    2fdc:	66 0f       	add	r22, r22
    2fde:	77 1f       	adc	r23, r23
    2fe0:	88 1f       	adc	r24, r24
    2fe2:	99 1f       	adc	r25, r25
    2fe4:	06 94       	lsr	r0
    2fe6:	a1 f7       	brne	.-24     	; 0x2fd0 <__ftoa_engine+0x74>
    2fe8:	05 90       	lpm	r0, Z+
    2fea:	07 94       	ror	r0
    2fec:	28 f4       	brcc	.+10     	; 0x2ff8 <__ftoa_engine+0x9c>
    2fee:	e7 0e       	add	r14, r23
    2ff0:	f8 1e       	adc	r15, r24
    2ff2:	49 1f       	adc	r20, r25
    2ff4:	56 1f       	adc	r21, r22
    2ff6:	c1 1d       	adc	r28, r1
    2ff8:	77 0f       	add	r23, r23
    2ffa:	88 1f       	adc	r24, r24
    2ffc:	99 1f       	adc	r25, r25
    2ffe:	66 1f       	adc	r22, r22
    3000:	06 94       	lsr	r0
    3002:	a1 f7       	brne	.-24     	; 0x2fec <__ftoa_engine+0x90>
    3004:	05 90       	lpm	r0, Z+
    3006:	07 94       	ror	r0
    3008:	28 f4       	brcc	.+10     	; 0x3014 <__ftoa_engine+0xb8>
    300a:	f8 0e       	add	r15, r24
    300c:	49 1f       	adc	r20, r25
    300e:	56 1f       	adc	r21, r22
    3010:	c7 1f       	adc	r28, r23
    3012:	d1 1d       	adc	r29, r1
    3014:	88 0f       	add	r24, r24
    3016:	99 1f       	adc	r25, r25
    3018:	66 1f       	adc	r22, r22
    301a:	77 1f       	adc	r23, r23
    301c:	06 94       	lsr	r0
    301e:	a1 f7       	brne	.-24     	; 0x3008 <__ftoa_engine+0xac>
    3020:	05 90       	lpm	r0, Z+
    3022:	07 94       	ror	r0
    3024:	20 f4       	brcc	.+8      	; 0x302e <__ftoa_engine+0xd2>
    3026:	49 0f       	add	r20, r25
    3028:	56 1f       	adc	r21, r22
    302a:	c7 1f       	adc	r28, r23
    302c:	d8 1f       	adc	r29, r24
    302e:	99 0f       	add	r25, r25
    3030:	66 1f       	adc	r22, r22
    3032:	77 1f       	adc	r23, r23
    3034:	88 1f       	adc	r24, r24
    3036:	06 94       	lsr	r0
    3038:	a9 f7       	brne	.-22     	; 0x3024 <__ftoa_engine+0xc8>
    303a:	84 91       	lpm	r24, Z
    303c:	10 95       	com	r17
    303e:	17 70       	andi	r17, 0x07	; 7
    3040:	41 f0       	breq	.+16     	; 0x3052 <__ftoa_engine+0xf6>
    3042:	d6 95       	lsr	r29
    3044:	c7 95       	ror	r28
    3046:	57 95       	ror	r21
    3048:	47 95       	ror	r20
    304a:	f7 94       	ror	r15
    304c:	e7 94       	ror	r14
    304e:	1a 95       	dec	r17
    3050:	c1 f7       	brne	.-16     	; 0x3042 <__ftoa_engine+0xe6>
    3052:	e4 e7       	ldi	r30, 0x74	; 116
    3054:	f3 e0       	ldi	r31, 0x03	; 3
    3056:	68 94       	set
    3058:	15 90       	lpm	r1, Z+
    305a:	15 91       	lpm	r17, Z+
    305c:	35 91       	lpm	r19, Z+
    305e:	65 91       	lpm	r22, Z+
    3060:	95 91       	lpm	r25, Z+
    3062:	05 90       	lpm	r0, Z+
    3064:	7f e2       	ldi	r23, 0x2F	; 47
    3066:	73 95       	inc	r23
    3068:	e1 18       	sub	r14, r1
    306a:	f1 0a       	sbc	r15, r17
    306c:	43 0b       	sbc	r20, r19
    306e:	56 0b       	sbc	r21, r22
    3070:	c9 0b       	sbc	r28, r25
    3072:	d0 09       	sbc	r29, r0
    3074:	c0 f7       	brcc	.-16     	; 0x3066 <__ftoa_engine+0x10a>
    3076:	e1 0c       	add	r14, r1
    3078:	f1 1e       	adc	r15, r17
    307a:	43 1f       	adc	r20, r19
    307c:	56 1f       	adc	r21, r22
    307e:	c9 1f       	adc	r28, r25
    3080:	d0 1d       	adc	r29, r0
    3082:	7e f4       	brtc	.+30     	; 0x30a2 <__ftoa_engine+0x146>
    3084:	70 33       	cpi	r23, 0x30	; 48
    3086:	11 f4       	brne	.+4      	; 0x308c <__ftoa_engine+0x130>
    3088:	8a 95       	dec	r24
    308a:	e6 cf       	rjmp	.-52     	; 0x3058 <__ftoa_engine+0xfc>
    308c:	e8 94       	clt
    308e:	01 50       	subi	r16, 0x01	; 1
    3090:	30 f0       	brcs	.+12     	; 0x309e <__ftoa_engine+0x142>
    3092:	08 0f       	add	r16, r24
    3094:	0a f4       	brpl	.+2      	; 0x3098 <__ftoa_engine+0x13c>
    3096:	00 27       	eor	r16, r16
    3098:	02 17       	cp	r16, r18
    309a:	08 f4       	brcc	.+2      	; 0x309e <__ftoa_engine+0x142>
    309c:	20 2f       	mov	r18, r16
    309e:	23 95       	inc	r18
    30a0:	02 2f       	mov	r16, r18
    30a2:	7a 33       	cpi	r23, 0x3A	; 58
    30a4:	28 f0       	brcs	.+10     	; 0x30b0 <__ftoa_engine+0x154>
    30a6:	79 e3       	ldi	r23, 0x39	; 57
    30a8:	7d 93       	st	X+, r23
    30aa:	2a 95       	dec	r18
    30ac:	e9 f7       	brne	.-6      	; 0x30a8 <__ftoa_engine+0x14c>
    30ae:	10 c0       	rjmp	.+32     	; 0x30d0 <__ftoa_engine+0x174>
    30b0:	7d 93       	st	X+, r23
    30b2:	2a 95       	dec	r18
    30b4:	89 f6       	brne	.-94     	; 0x3058 <__ftoa_engine+0xfc>
    30b6:	06 94       	lsr	r0
    30b8:	97 95       	ror	r25
    30ba:	67 95       	ror	r22
    30bc:	37 95       	ror	r19
    30be:	17 95       	ror	r17
    30c0:	17 94       	ror	r1
    30c2:	e1 18       	sub	r14, r1
    30c4:	f1 0a       	sbc	r15, r17
    30c6:	43 0b       	sbc	r20, r19
    30c8:	56 0b       	sbc	r21, r22
    30ca:	c9 0b       	sbc	r28, r25
    30cc:	d0 09       	sbc	r29, r0
    30ce:	98 f0       	brcs	.+38     	; 0x30f6 <__ftoa_engine+0x19a>
    30d0:	23 95       	inc	r18
    30d2:	7e 91       	ld	r23, -X
    30d4:	73 95       	inc	r23
    30d6:	7a 33       	cpi	r23, 0x3A	; 58
    30d8:	08 f0       	brcs	.+2      	; 0x30dc <__ftoa_engine+0x180>
    30da:	70 e3       	ldi	r23, 0x30	; 48
    30dc:	7c 93       	st	X, r23
    30de:	20 13       	cpse	r18, r16
    30e0:	b8 f7       	brcc	.-18     	; 0x30d0 <__ftoa_engine+0x174>
    30e2:	7e 91       	ld	r23, -X
    30e4:	70 61       	ori	r23, 0x10	; 16
    30e6:	7d 93       	st	X+, r23
    30e8:	30 f0       	brcs	.+12     	; 0x30f6 <__ftoa_engine+0x19a>
    30ea:	83 95       	inc	r24
    30ec:	71 e3       	ldi	r23, 0x31	; 49
    30ee:	7d 93       	st	X+, r23
    30f0:	70 e3       	ldi	r23, 0x30	; 48
    30f2:	2a 95       	dec	r18
    30f4:	e1 f7       	brne	.-8      	; 0x30ee <__ftoa_engine+0x192>
    30f6:	11 24       	eor	r1, r1
    30f8:	ef 90       	pop	r14
    30fa:	ff 90       	pop	r15
    30fc:	0f 91       	pop	r16
    30fe:	1f 91       	pop	r17
    3100:	cf 91       	pop	r28
    3102:	df 91       	pop	r29
    3104:	99 27       	eor	r25, r25
    3106:	87 fd       	sbrc	r24, 7
    3108:	90 95       	com	r25
    310a:	08 95       	ret

0000310c <strnlen_P>:
    310c:	fc 01       	movw	r30, r24
    310e:	05 90       	lpm	r0, Z+
    3110:	61 50       	subi	r22, 0x01	; 1
    3112:	70 40       	sbci	r23, 0x00	; 0
    3114:	01 10       	cpse	r0, r1
    3116:	d8 f7       	brcc	.-10     	; 0x310e <strnlen_P+0x2>
    3118:	80 95       	com	r24
    311a:	90 95       	com	r25
    311c:	8e 0f       	add	r24, r30
    311e:	9f 1f       	adc	r25, r31
    3120:	08 95       	ret

00003122 <strnlen>:
    3122:	fc 01       	movw	r30, r24
    3124:	61 50       	subi	r22, 0x01	; 1
    3126:	70 40       	sbci	r23, 0x00	; 0
    3128:	01 90       	ld	r0, Z+
    312a:	01 10       	cpse	r0, r1
    312c:	d8 f7       	brcc	.-10     	; 0x3124 <strnlen+0x2>
    312e:	80 95       	com	r24
    3130:	90 95       	com	r25
    3132:	8e 0f       	add	r24, r30
    3134:	9f 1f       	adc	r25, r31
    3136:	08 95       	ret

00003138 <fputc>:
    3138:	0f 93       	push	r16
    313a:	1f 93       	push	r17
    313c:	cf 93       	push	r28
    313e:	df 93       	push	r29
    3140:	18 2f       	mov	r17, r24
    3142:	09 2f       	mov	r16, r25
    3144:	eb 01       	movw	r28, r22
    3146:	8b 81       	ldd	r24, Y+3	; 0x03
    3148:	81 fd       	sbrc	r24, 1
    314a:	03 c0       	rjmp	.+6      	; 0x3152 <fputc+0x1a>
    314c:	8f ef       	ldi	r24, 0xFF	; 255
    314e:	9f ef       	ldi	r25, 0xFF	; 255
    3150:	20 c0       	rjmp	.+64     	; 0x3192 <fputc+0x5a>
    3152:	82 ff       	sbrs	r24, 2
    3154:	10 c0       	rjmp	.+32     	; 0x3176 <fputc+0x3e>
    3156:	4e 81       	ldd	r20, Y+6	; 0x06
    3158:	5f 81       	ldd	r21, Y+7	; 0x07
    315a:	2c 81       	ldd	r18, Y+4	; 0x04
    315c:	3d 81       	ldd	r19, Y+5	; 0x05
    315e:	42 17       	cp	r20, r18
    3160:	53 07       	cpc	r21, r19
    3162:	7c f4       	brge	.+30     	; 0x3182 <fputc+0x4a>
    3164:	e8 81       	ld	r30, Y
    3166:	f9 81       	ldd	r31, Y+1	; 0x01
    3168:	9f 01       	movw	r18, r30
    316a:	2f 5f       	subi	r18, 0xFF	; 255
    316c:	3f 4f       	sbci	r19, 0xFF	; 255
    316e:	39 83       	std	Y+1, r19	; 0x01
    3170:	28 83       	st	Y, r18
    3172:	10 83       	st	Z, r17
    3174:	06 c0       	rjmp	.+12     	; 0x3182 <fputc+0x4a>
    3176:	e8 85       	ldd	r30, Y+8	; 0x08
    3178:	f9 85       	ldd	r31, Y+9	; 0x09
    317a:	81 2f       	mov	r24, r17
    317c:	09 95       	icall
    317e:	89 2b       	or	r24, r25
    3180:	29 f7       	brne	.-54     	; 0x314c <fputc+0x14>
    3182:	2e 81       	ldd	r18, Y+6	; 0x06
    3184:	3f 81       	ldd	r19, Y+7	; 0x07
    3186:	2f 5f       	subi	r18, 0xFF	; 255
    3188:	3f 4f       	sbci	r19, 0xFF	; 255
    318a:	3f 83       	std	Y+7, r19	; 0x07
    318c:	2e 83       	std	Y+6, r18	; 0x06
    318e:	81 2f       	mov	r24, r17
    3190:	90 2f       	mov	r25, r16
    3192:	df 91       	pop	r29
    3194:	cf 91       	pop	r28
    3196:	1f 91       	pop	r17
    3198:	0f 91       	pop	r16
    319a:	08 95       	ret

0000319c <printf>:
    319c:	a0 e0       	ldi	r26, 0x00	; 0
    319e:	b0 e0       	ldi	r27, 0x00	; 0
    31a0:	e4 ed       	ldi	r30, 0xD4	; 212
    31a2:	f8 e1       	ldi	r31, 0x18	; 24
    31a4:	0c 94 87 17 	jmp	0x2f0e	; 0x2f0e <__prologue_saves__+0x20>
    31a8:	fe 01       	movw	r30, r28
    31aa:	35 96       	adiw	r30, 0x05	; 5
    31ac:	61 91       	ld	r22, Z+
    31ae:	71 91       	ld	r23, Z+
    31b0:	af 01       	movw	r20, r30
    31b2:	80 91 6b 07 	lds	r24, 0x076B
    31b6:	90 91 6c 07 	lds	r25, 0x076C
    31ba:	0e 94 98 12 	call	0x2530	; 0x2530 <vfprintf>
    31be:	e2 e0       	ldi	r30, 0x02	; 2
    31c0:	0c 94 a3 17 	jmp	0x2f46	; 0x2f46 <__epilogue_restores__+0x20>

000031c4 <printf_P>:
    31c4:	a0 e0       	ldi	r26, 0x00	; 0
    31c6:	b0 e0       	ldi	r27, 0x00	; 0
    31c8:	e8 ee       	ldi	r30, 0xE8	; 232
    31ca:	f8 e1       	ldi	r31, 0x18	; 24
    31cc:	0c 94 85 17 	jmp	0x2f0a	; 0x2f0a <__prologue_saves__+0x1c>
    31d0:	fe 01       	movw	r30, r28
    31d2:	37 96       	adiw	r30, 0x07	; 7
    31d4:	61 91       	ld	r22, Z+
    31d6:	71 91       	ld	r23, Z+
    31d8:	0b e6       	ldi	r16, 0x6B	; 107
    31da:	17 e0       	ldi	r17, 0x07	; 7
    31dc:	d8 01       	movw	r26, r16
    31de:	8d 91       	ld	r24, X+
    31e0:	9c 91       	ld	r25, X
    31e2:	dc 01       	movw	r26, r24
    31e4:	13 96       	adiw	r26, 0x03	; 3
    31e6:	2c 91       	ld	r18, X
    31e8:	13 97       	sbiw	r26, 0x03	; 3
    31ea:	28 60       	ori	r18, 0x08	; 8
    31ec:	13 96       	adiw	r26, 0x03	; 3
    31ee:	2c 93       	st	X, r18
    31f0:	af 01       	movw	r20, r30
    31f2:	0e 94 98 12 	call	0x2530	; 0x2530 <vfprintf>
    31f6:	d8 01       	movw	r26, r16
    31f8:	ed 91       	ld	r30, X+
    31fa:	fc 91       	ld	r31, X
    31fc:	23 81       	ldd	r18, Z+3	; 0x03
    31fe:	27 7f       	andi	r18, 0xF7	; 247
    3200:	23 83       	std	Z+3, r18	; 0x03
    3202:	e4 e0       	ldi	r30, 0x04	; 4
    3204:	0c 94 a1 17 	jmp	0x2f42	; 0x2f42 <__epilogue_restores__+0x1c>

00003208 <scanf>:
    3208:	a0 e0       	ldi	r26, 0x00	; 0
    320a:	b0 e0       	ldi	r27, 0x00	; 0
    320c:	ea e0       	ldi	r30, 0x0A	; 10
    320e:	f9 e1       	ldi	r31, 0x19	; 25
    3210:	0c 94 87 17 	jmp	0x2f0e	; 0x2f0e <__prologue_saves__+0x20>
    3214:	fe 01       	movw	r30, r28
    3216:	35 96       	adiw	r30, 0x05	; 5
    3218:	61 91       	ld	r22, Z+
    321a:	71 91       	ld	r23, Z+
    321c:	af 01       	movw	r20, r30
    321e:	80 91 69 07 	lds	r24, 0x0769
    3222:	90 91 6a 07 	lds	r25, 0x076A
    3226:	0e 94 f4 1a 	call	0x35e8	; 0x35e8 <vfscanf>
    322a:	e2 e0       	ldi	r30, 0x02	; 2
    322c:	0c 94 a3 17 	jmp	0x2f46	; 0x2f46 <__epilogue_restores__+0x20>

00003230 <__ultoa_invert>:
    3230:	fa 01       	movw	r30, r20
    3232:	aa 27       	eor	r26, r26
    3234:	28 30       	cpi	r18, 0x08	; 8
    3236:	51 f1       	breq	.+84     	; 0x328c <__ultoa_invert+0x5c>
    3238:	20 31       	cpi	r18, 0x10	; 16
    323a:	81 f1       	breq	.+96     	; 0x329c <__ultoa_invert+0x6c>
    323c:	e8 94       	clt
    323e:	6f 93       	push	r22
    3240:	6e 7f       	andi	r22, 0xFE	; 254
    3242:	6e 5f       	subi	r22, 0xFE	; 254
    3244:	7f 4f       	sbci	r23, 0xFF	; 255
    3246:	8f 4f       	sbci	r24, 0xFF	; 255
    3248:	9f 4f       	sbci	r25, 0xFF	; 255
    324a:	af 4f       	sbci	r26, 0xFF	; 255
    324c:	b1 e0       	ldi	r27, 0x01	; 1
    324e:	3e d0       	rcall	.+124    	; 0x32cc <__ultoa_invert+0x9c>
    3250:	b4 e0       	ldi	r27, 0x04	; 4
    3252:	3c d0       	rcall	.+120    	; 0x32cc <__ultoa_invert+0x9c>
    3254:	67 0f       	add	r22, r23
    3256:	78 1f       	adc	r23, r24
    3258:	89 1f       	adc	r24, r25
    325a:	9a 1f       	adc	r25, r26
    325c:	a1 1d       	adc	r26, r1
    325e:	68 0f       	add	r22, r24
    3260:	79 1f       	adc	r23, r25
    3262:	8a 1f       	adc	r24, r26
    3264:	91 1d       	adc	r25, r1
    3266:	a1 1d       	adc	r26, r1
    3268:	6a 0f       	add	r22, r26
    326a:	71 1d       	adc	r23, r1
    326c:	81 1d       	adc	r24, r1
    326e:	91 1d       	adc	r25, r1
    3270:	a1 1d       	adc	r26, r1
    3272:	20 d0       	rcall	.+64     	; 0x32b4 <__ultoa_invert+0x84>
    3274:	09 f4       	brne	.+2      	; 0x3278 <__ultoa_invert+0x48>
    3276:	68 94       	set
    3278:	3f 91       	pop	r19
    327a:	2a e0       	ldi	r18, 0x0A	; 10
    327c:	26 9f       	mul	r18, r22
    327e:	11 24       	eor	r1, r1
    3280:	30 19       	sub	r19, r0
    3282:	30 5d       	subi	r19, 0xD0	; 208
    3284:	31 93       	st	Z+, r19
    3286:	de f6       	brtc	.-74     	; 0x323e <__ultoa_invert+0xe>
    3288:	cf 01       	movw	r24, r30
    328a:	08 95       	ret
    328c:	46 2f       	mov	r20, r22
    328e:	47 70       	andi	r20, 0x07	; 7
    3290:	40 5d       	subi	r20, 0xD0	; 208
    3292:	41 93       	st	Z+, r20
    3294:	b3 e0       	ldi	r27, 0x03	; 3
    3296:	0f d0       	rcall	.+30     	; 0x32b6 <__ultoa_invert+0x86>
    3298:	c9 f7       	brne	.-14     	; 0x328c <__ultoa_invert+0x5c>
    329a:	f6 cf       	rjmp	.-20     	; 0x3288 <__ultoa_invert+0x58>
    329c:	46 2f       	mov	r20, r22
    329e:	4f 70       	andi	r20, 0x0F	; 15
    32a0:	40 5d       	subi	r20, 0xD0	; 208
    32a2:	4a 33       	cpi	r20, 0x3A	; 58
    32a4:	18 f0       	brcs	.+6      	; 0x32ac <__ultoa_invert+0x7c>
    32a6:	49 5d       	subi	r20, 0xD9	; 217
    32a8:	31 fd       	sbrc	r19, 1
    32aa:	40 52       	subi	r20, 0x20	; 32
    32ac:	41 93       	st	Z+, r20
    32ae:	02 d0       	rcall	.+4      	; 0x32b4 <__ultoa_invert+0x84>
    32b0:	a9 f7       	brne	.-22     	; 0x329c <__ultoa_invert+0x6c>
    32b2:	ea cf       	rjmp	.-44     	; 0x3288 <__ultoa_invert+0x58>
    32b4:	b4 e0       	ldi	r27, 0x04	; 4
    32b6:	a6 95       	lsr	r26
    32b8:	97 95       	ror	r25
    32ba:	87 95       	ror	r24
    32bc:	77 95       	ror	r23
    32be:	67 95       	ror	r22
    32c0:	ba 95       	dec	r27
    32c2:	c9 f7       	brne	.-14     	; 0x32b6 <__ultoa_invert+0x86>
    32c4:	00 97       	sbiw	r24, 0x00	; 0
    32c6:	61 05       	cpc	r22, r1
    32c8:	71 05       	cpc	r23, r1
    32ca:	08 95       	ret
    32cc:	9b 01       	movw	r18, r22
    32ce:	ac 01       	movw	r20, r24
    32d0:	0a 2e       	mov	r0, r26
    32d2:	06 94       	lsr	r0
    32d4:	57 95       	ror	r21
    32d6:	47 95       	ror	r20
    32d8:	37 95       	ror	r19
    32da:	27 95       	ror	r18
    32dc:	ba 95       	dec	r27
    32de:	c9 f7       	brne	.-14     	; 0x32d2 <__ultoa_invert+0xa2>
    32e0:	62 0f       	add	r22, r18
    32e2:	73 1f       	adc	r23, r19
    32e4:	84 1f       	adc	r24, r20
    32e6:	95 1f       	adc	r25, r21
    32e8:	a0 1d       	adc	r26, r0
    32ea:	08 95       	ret

000032ec <putval>:
    32ec:	20 fd       	sbrc	r18, 0
    32ee:	09 c0       	rjmp	.+18     	; 0x3302 <putval+0x16>
    32f0:	fc 01       	movw	r30, r24
    32f2:	23 fd       	sbrc	r18, 3
    32f4:	05 c0       	rjmp	.+10     	; 0x3300 <putval+0x14>
    32f6:	22 ff       	sbrs	r18, 2
    32f8:	02 c0       	rjmp	.+4      	; 0x32fe <putval+0x12>
    32fa:	73 83       	std	Z+3, r23	; 0x03
    32fc:	62 83       	std	Z+2, r22	; 0x02
    32fe:	51 83       	std	Z+1, r21	; 0x01
    3300:	40 83       	st	Z, r20
    3302:	08 95       	ret

00003304 <mulacc>:
    3304:	44 fd       	sbrc	r20, 4
    3306:	10 c0       	rjmp	.+32     	; 0x3328 <mulacc+0x24>
    3308:	46 fd       	sbrc	r20, 6
    330a:	10 c0       	rjmp	.+32     	; 0x332c <mulacc+0x28>
    330c:	db 01       	movw	r26, r22
    330e:	fc 01       	movw	r30, r24
    3310:	aa 0f       	add	r26, r26
    3312:	bb 1f       	adc	r27, r27
    3314:	ee 1f       	adc	r30, r30
    3316:	ff 1f       	adc	r31, r31
    3318:	10 94       	com	r1
    331a:	d1 f7       	brne	.-12     	; 0x3310 <mulacc+0xc>
    331c:	6a 0f       	add	r22, r26
    331e:	7b 1f       	adc	r23, r27
    3320:	8e 1f       	adc	r24, r30
    3322:	9f 1f       	adc	r25, r31
    3324:	31 e0       	ldi	r19, 0x01	; 1
    3326:	03 c0       	rjmp	.+6      	; 0x332e <mulacc+0x2a>
    3328:	33 e0       	ldi	r19, 0x03	; 3
    332a:	01 c0       	rjmp	.+2      	; 0x332e <mulacc+0x2a>
    332c:	34 e0       	ldi	r19, 0x04	; 4
    332e:	66 0f       	add	r22, r22
    3330:	77 1f       	adc	r23, r23
    3332:	88 1f       	adc	r24, r24
    3334:	99 1f       	adc	r25, r25
    3336:	31 50       	subi	r19, 0x01	; 1
    3338:	d1 f7       	brne	.-12     	; 0x332e <mulacc+0x2a>
    333a:	62 0f       	add	r22, r18
    333c:	71 1d       	adc	r23, r1
    333e:	81 1d       	adc	r24, r1
    3340:	91 1d       	adc	r25, r1
    3342:	08 95       	ret

00003344 <skip_spaces>:
    3344:	0f 93       	push	r16
    3346:	1f 93       	push	r17
    3348:	cf 93       	push	r28
    334a:	df 93       	push	r29
    334c:	8c 01       	movw	r16, r24
    334e:	c8 01       	movw	r24, r16
    3350:	0e 94 3e 1c 	call	0x387c	; 0x387c <fgetc>
    3354:	ec 01       	movw	r28, r24
    3356:	97 fd       	sbrc	r25, 7
    3358:	08 c0       	rjmp	.+16     	; 0x336a <skip_spaces+0x26>
    335a:	0e 94 2b 1c 	call	0x3856	; 0x3856 <isspace>
    335e:	89 2b       	or	r24, r25
    3360:	b1 f7       	brne	.-20     	; 0x334e <skip_spaces+0xa>
    3362:	b8 01       	movw	r22, r16
    3364:	ce 01       	movw	r24, r28
    3366:	0e 94 7c 1c 	call	0x38f8	; 0x38f8 <ungetc>
    336a:	ce 01       	movw	r24, r28
    336c:	df 91       	pop	r29
    336e:	cf 91       	pop	r28
    3370:	1f 91       	pop	r17
    3372:	0f 91       	pop	r16
    3374:	08 95       	ret

00003376 <conv_int>:
    3376:	8f 92       	push	r8
    3378:	9f 92       	push	r9
    337a:	af 92       	push	r10
    337c:	cf 92       	push	r12
    337e:	df 92       	push	r13
    3380:	ef 92       	push	r14
    3382:	ff 92       	push	r15
    3384:	0f 93       	push	r16
    3386:	1f 93       	push	r17
    3388:	cf 93       	push	r28
    338a:	df 93       	push	r29
    338c:	ec 01       	movw	r28, r24
    338e:	a6 2e       	mov	r10, r22
    3390:	4a 01       	movw	r8, r20
    3392:	02 2f       	mov	r16, r18
    3394:	0e 94 3e 1c 	call	0x387c	; 0x387c <fgetc>
    3398:	ac 01       	movw	r20, r24
    339a:	55 27       	eor	r21, r21
    339c:	4b 32       	cpi	r20, 0x2B	; 43
    339e:	51 05       	cpc	r21, r1
    33a0:	21 f0       	breq	.+8      	; 0x33aa <conv_int+0x34>
    33a2:	4d 32       	cpi	r20, 0x2D	; 45
    33a4:	51 05       	cpc	r21, r1
    33a6:	51 f4       	brne	.+20     	; 0x33bc <conv_int+0x46>
    33a8:	00 68       	ori	r16, 0x80	; 128
    33aa:	aa 94       	dec	r10
    33ac:	11 f4       	brne	.+4      	; 0x33b2 <conv_int+0x3c>
    33ae:	80 e0       	ldi	r24, 0x00	; 0
    33b0:	67 c0       	rjmp	.+206    	; 0x3480 <conv_int+0x10a>
    33b2:	ce 01       	movw	r24, r28
    33b4:	0e 94 3e 1c 	call	0x387c	; 0x387c <fgetc>
    33b8:	97 fd       	sbrc	r25, 7
    33ba:	f9 cf       	rjmp	.-14     	; 0x33ae <conv_int+0x38>
    33bc:	10 2f       	mov	r17, r16
    33be:	1d 7f       	andi	r17, 0xFD	; 253
    33c0:	30 2f       	mov	r19, r16
    33c2:	30 73       	andi	r19, 0x30	; 48
    33c4:	01 f5       	brne	.+64     	; 0x3406 <conv_int+0x90>
    33c6:	80 33       	cpi	r24, 0x30	; 48
    33c8:	f1 f4       	brne	.+60     	; 0x3406 <conv_int+0x90>
    33ca:	ff 24       	eor	r15, r15
    33cc:	fa 94       	dec	r15
    33ce:	fa 0c       	add	r15, r10
    33d0:	09 f4       	brne	.+2      	; 0x33d4 <conv_int+0x5e>
    33d2:	42 c0       	rjmp	.+132    	; 0x3458 <conv_int+0xe2>
    33d4:	ce 01       	movw	r24, r28
    33d6:	0e 94 3e 1c 	call	0x387c	; 0x387c <fgetc>
    33da:	97 fd       	sbrc	r25, 7
    33dc:	3d c0       	rjmp	.+122    	; 0x3458 <conv_int+0xe2>
    33de:	38 2f       	mov	r19, r24
    33e0:	3f 7d       	andi	r19, 0xDF	; 223
    33e2:	38 35       	cpi	r19, 0x58	; 88
    33e4:	51 f4       	brne	.+20     	; 0x33fa <conv_int+0x84>
    33e6:	12 64       	ori	r17, 0x42	; 66
    33e8:	aa 94       	dec	r10
    33ea:	aa 94       	dec	r10
    33ec:	a9 f1       	breq	.+106    	; 0x3458 <conv_int+0xe2>
    33ee:	ce 01       	movw	r24, r28
    33f0:	0e 94 3e 1c 	call	0x387c	; 0x387c <fgetc>
    33f4:	97 ff       	sbrs	r25, 7
    33f6:	07 c0       	rjmp	.+14     	; 0x3406 <conv_int+0x90>
    33f8:	2f c0       	rjmp	.+94     	; 0x3458 <conv_int+0xe2>
    33fa:	06 ff       	sbrs	r16, 6
    33fc:	02 c0       	rjmp	.+4      	; 0x3402 <conv_int+0x8c>
    33fe:	12 60       	ori	r17, 0x02	; 2
    3400:	01 c0       	rjmp	.+2      	; 0x3404 <conv_int+0x8e>
    3402:	12 61       	ori	r17, 0x12	; 18
    3404:	af 2c       	mov	r10, r15
    3406:	c1 2c       	mov	r12, r1
    3408:	d1 2c       	mov	r13, r1
    340a:	76 01       	movw	r14, r12
    340c:	20 ed       	ldi	r18, 0xD0	; 208
    340e:	28 0f       	add	r18, r24
    3410:	28 30       	cpi	r18, 0x08	; 8
    3412:	80 f0       	brcs	.+32     	; 0x3434 <conv_int+0xbe>
    3414:	14 ff       	sbrs	r17, 4
    3416:	04 c0       	rjmp	.+8      	; 0x3420 <conv_int+0xaa>
    3418:	be 01       	movw	r22, r28
    341a:	0e 94 7c 1c 	call	0x38f8	; 0x38f8 <ungetc>
    341e:	19 c0       	rjmp	.+50     	; 0x3452 <conv_int+0xdc>
    3420:	2a 30       	cpi	r18, 0x0A	; 10
    3422:	40 f0       	brcs	.+16     	; 0x3434 <conv_int+0xbe>
    3424:	16 ff       	sbrs	r17, 6
    3426:	f8 cf       	rjmp	.-16     	; 0x3418 <conv_int+0xa2>
    3428:	2f 7d       	andi	r18, 0xDF	; 223
    342a:	3f ee       	ldi	r19, 0xEF	; 239
    342c:	32 0f       	add	r19, r18
    342e:	36 30       	cpi	r19, 0x06	; 6
    3430:	98 f7       	brcc	.-26     	; 0x3418 <conv_int+0xa2>
    3432:	27 50       	subi	r18, 0x07	; 7
    3434:	41 2f       	mov	r20, r17
    3436:	c7 01       	movw	r24, r14
    3438:	b6 01       	movw	r22, r12
    343a:	0e 94 82 19 	call	0x3304	; 0x3304 <mulacc>
    343e:	6b 01       	movw	r12, r22
    3440:	7c 01       	movw	r14, r24
    3442:	12 60       	ori	r17, 0x02	; 2
    3444:	aa 94       	dec	r10
    3446:	59 f0       	breq	.+22     	; 0x345e <conv_int+0xe8>
    3448:	ce 01       	movw	r24, r28
    344a:	0e 94 3e 1c 	call	0x387c	; 0x387c <fgetc>
    344e:	97 ff       	sbrs	r25, 7
    3450:	dd cf       	rjmp	.-70     	; 0x340c <conv_int+0x96>
    3452:	11 fd       	sbrc	r17, 1
    3454:	04 c0       	rjmp	.+8      	; 0x345e <conv_int+0xe8>
    3456:	ab cf       	rjmp	.-170    	; 0x33ae <conv_int+0x38>
    3458:	c1 2c       	mov	r12, r1
    345a:	d1 2c       	mov	r13, r1
    345c:	76 01       	movw	r14, r12
    345e:	17 ff       	sbrs	r17, 7
    3460:	08 c0       	rjmp	.+16     	; 0x3472 <conv_int+0xfc>
    3462:	f0 94       	com	r15
    3464:	e0 94       	com	r14
    3466:	d0 94       	com	r13
    3468:	c0 94       	com	r12
    346a:	c1 1c       	adc	r12, r1
    346c:	d1 1c       	adc	r13, r1
    346e:	e1 1c       	adc	r14, r1
    3470:	f1 1c       	adc	r15, r1
    3472:	21 2f       	mov	r18, r17
    3474:	b7 01       	movw	r22, r14
    3476:	a6 01       	movw	r20, r12
    3478:	c4 01       	movw	r24, r8
    347a:	0e 94 76 19 	call	0x32ec	; 0x32ec <putval>
    347e:	81 e0       	ldi	r24, 0x01	; 1
    3480:	df 91       	pop	r29
    3482:	cf 91       	pop	r28
    3484:	1f 91       	pop	r17
    3486:	0f 91       	pop	r16
    3488:	ff 90       	pop	r15
    348a:	ef 90       	pop	r14
    348c:	df 90       	pop	r13
    348e:	cf 90       	pop	r12
    3490:	af 90       	pop	r10
    3492:	9f 90       	pop	r9
    3494:	8f 90       	pop	r8
    3496:	08 95       	ret

00003498 <conv_brk>:
    3498:	a1 e2       	ldi	r26, 0x21	; 33
    349a:	b0 e0       	ldi	r27, 0x00	; 0
    349c:	e2 e5       	ldi	r30, 0x52	; 82
    349e:	fa e1       	ldi	r31, 0x1A	; 26
    34a0:	0c 94 7c 17 	jmp	0x2ef8	; 0x2ef8 <__prologue_saves__+0xa>
    34a4:	5c 01       	movw	r10, r24
    34a6:	7a 01       	movw	r14, r20
    34a8:	8e 01       	movw	r16, r28
    34aa:	0f 5f       	subi	r16, 0xFF	; 255
    34ac:	1f 4f       	sbci	r17, 0xFF	; 255
    34ae:	68 01       	movw	r12, r16
    34b0:	80 e2       	ldi	r24, 0x20	; 32
    34b2:	d8 01       	movw	r26, r16
    34b4:	1d 92       	st	X+, r1
    34b6:	8a 95       	dec	r24
    34b8:	e9 f7       	brne	.-6      	; 0x34b4 <conv_brk+0x1c>
    34ba:	f5 01       	movw	r30, r10
    34bc:	73 80       	ldd	r7, Z+3	; 0x03
    34be:	40 e0       	ldi	r20, 0x00	; 0
    34c0:	50 e0       	ldi	r21, 0x00	; 0
    34c2:	81 2c       	mov	r8, r1
    34c4:	b0 e0       	ldi	r27, 0x00	; 0
    34c6:	91 2c       	mov	r9, r1
    34c8:	81 e0       	ldi	r24, 0x01	; 1
    34ca:	90 e0       	ldi	r25, 0x00	; 0
    34cc:	f9 01       	movw	r30, r18
    34ce:	73 fc       	sbrc	r7, 3
    34d0:	a5 91       	lpm	r26, Z+
    34d2:	73 fe       	sbrs	r7, 3
    34d4:	a1 91       	ld	r26, Z+
    34d6:	8f 01       	movw	r16, r30
    34d8:	7a 2f       	mov	r23, r26
    34da:	9f 01       	movw	r18, r30
    34dc:	a1 11       	cpse	r26, r1
    34de:	03 c0       	rjmp	.+6      	; 0x34e6 <conv_brk+0x4e>
    34e0:	80 e0       	ldi	r24, 0x00	; 0
    34e2:	90 e0       	ldi	r25, 0x00	; 0
    34e4:	7d c0       	rjmp	.+250    	; 0x35e0 <conv_brk+0x148>
    34e6:	ae 35       	cpi	r26, 0x5E	; 94
    34e8:	19 f4       	brne	.+6      	; 0x34f0 <conv_brk+0x58>
    34ea:	41 15       	cp	r20, r1
    34ec:	51 05       	cpc	r21, r1
    34ee:	59 f1       	breq	.+86     	; 0x3546 <conv_brk+0xae>
    34f0:	e9 2d       	mov	r30, r9
    34f2:	f0 e0       	ldi	r31, 0x00	; 0
    34f4:	e4 17       	cp	r30, r20
    34f6:	f5 07       	cpc	r31, r21
    34f8:	3c f4       	brge	.+14     	; 0x3508 <conv_brk+0x70>
    34fa:	ad 35       	cpi	r26, 0x5D	; 93
    34fc:	69 f1       	breq	.+90     	; 0x3558 <conv_brk+0xc0>
    34fe:	ad 32       	cpi	r26, 0x2D	; 45
    3500:	19 f4       	brne	.+6      	; 0x3508 <conv_brk+0x70>
    3502:	bb 23       	and	r27, r27
    3504:	19 f1       	breq	.+70     	; 0x354c <conv_brk+0xb4>
    3506:	03 c0       	rjmp	.+6      	; 0x350e <conv_brk+0x76>
    3508:	b1 11       	cpse	r27, r1
    350a:	01 c0       	rjmp	.+2      	; 0x350e <conv_brk+0x76>
    350c:	8a 2e       	mov	r8, r26
    350e:	e7 2f       	mov	r30, r23
    3510:	e6 95       	lsr	r30
    3512:	e6 95       	lsr	r30
    3514:	e6 95       	lsr	r30
    3516:	86 01       	movw	r16, r12
    3518:	0e 0f       	add	r16, r30
    351a:	11 1d       	adc	r17, r1
    351c:	f8 01       	movw	r30, r16
    351e:	a7 2f       	mov	r26, r23
    3520:	a7 70       	andi	r26, 0x07	; 7
    3522:	8c 01       	movw	r16, r24
    3524:	02 c0       	rjmp	.+4      	; 0x352a <conv_brk+0x92>
    3526:	00 0f       	add	r16, r16
    3528:	11 1f       	adc	r17, r17
    352a:	aa 95       	dec	r26
    352c:	e2 f7       	brpl	.-8      	; 0x3526 <conv_brk+0x8e>
    352e:	d8 01       	movw	r26, r16
    3530:	b0 81       	ld	r27, Z
    3532:	ba 2b       	or	r27, r26
    3534:	b0 83       	st	Z, r27
    3536:	78 15       	cp	r23, r8
    3538:	59 f0       	breq	.+22     	; 0x3550 <conv_brk+0xb8>
    353a:	78 15       	cp	r23, r8
    353c:	10 f4       	brcc	.+4      	; 0x3542 <conv_brk+0xaa>
    353e:	7f 5f       	subi	r23, 0xFF	; 255
    3540:	e6 cf       	rjmp	.-52     	; 0x350e <conv_brk+0x76>
    3542:	71 50       	subi	r23, 0x01	; 1
    3544:	e4 cf       	rjmp	.-56     	; 0x350e <conv_brk+0x76>
    3546:	99 24       	eor	r9, r9
    3548:	93 94       	inc	r9
    354a:	03 c0       	rjmp	.+6      	; 0x3552 <conv_brk+0xba>
    354c:	b1 e0       	ldi	r27, 0x01	; 1
    354e:	01 c0       	rjmp	.+2      	; 0x3552 <conv_brk+0xba>
    3550:	b0 e0       	ldi	r27, 0x00	; 0
    3552:	4f 5f       	subi	r20, 0xFF	; 255
    3554:	5f 4f       	sbci	r21, 0xFF	; 255
    3556:	ba cf       	rjmp	.-140    	; 0x34cc <conv_brk+0x34>
    3558:	bb 23       	and	r27, r27
    355a:	19 f0       	breq	.+6      	; 0x3562 <conv_brk+0xca>
    355c:	8e 81       	ldd	r24, Y+6	; 0x06
    355e:	80 62       	ori	r24, 0x20	; 32
    3560:	8e 83       	std	Y+6, r24	; 0x06
    3562:	91 10       	cpse	r9, r1
    3564:	03 c0       	rjmp	.+6      	; 0x356c <conv_brk+0xd4>
    3566:	99 24       	eor	r9, r9
    3568:	93 94       	inc	r9
    356a:	15 c0       	rjmp	.+42     	; 0x3596 <conv_brk+0xfe>
    356c:	f6 01       	movw	r30, r12
    356e:	ce 01       	movw	r24, r28
    3570:	81 96       	adiw	r24, 0x21	; 33
    3572:	20 81       	ld	r18, Z
    3574:	20 95       	com	r18
    3576:	21 93       	st	Z+, r18
    3578:	e8 17       	cp	r30, r24
    357a:	f9 07       	cpc	r31, r25
    357c:	d1 f7       	brne	.-12     	; 0x3572 <conv_brk+0xda>
    357e:	f3 cf       	rjmp	.-26     	; 0x3566 <conv_brk+0xce>
    3580:	e1 14       	cp	r14, r1
    3582:	f1 04       	cpc	r15, r1
    3584:	29 f0       	breq	.+10     	; 0x3590 <conv_brk+0xf8>
    3586:	d7 01       	movw	r26, r14
    3588:	8c 93       	st	X, r24
    358a:	f7 01       	movw	r30, r14
    358c:	31 96       	adiw	r30, 0x01	; 1
    358e:	7f 01       	movw	r14, r30
    3590:	61 50       	subi	r22, 0x01	; 1
    3592:	01 f1       	breq	.+64     	; 0x35d4 <conv_brk+0x13c>
    3594:	91 2c       	mov	r9, r1
    3596:	c5 01       	movw	r24, r10
    3598:	69 a3       	std	Y+33, r22	; 0x21
    359a:	0e 94 3e 1c 	call	0x387c	; 0x387c <fgetc>
    359e:	69 a1       	ldd	r22, Y+33	; 0x21
    35a0:	97 fd       	sbrc	r25, 7
    35a2:	16 c0       	rjmp	.+44     	; 0x35d0 <conv_brk+0x138>
    35a4:	28 2f       	mov	r18, r24
    35a6:	26 95       	lsr	r18
    35a8:	26 95       	lsr	r18
    35aa:	26 95       	lsr	r18
    35ac:	f6 01       	movw	r30, r12
    35ae:	e2 0f       	add	r30, r18
    35b0:	f1 1d       	adc	r31, r1
    35b2:	20 81       	ld	r18, Z
    35b4:	30 e0       	ldi	r19, 0x00	; 0
    35b6:	ac 01       	movw	r20, r24
    35b8:	47 70       	andi	r20, 0x07	; 7
    35ba:	55 27       	eor	r21, r21
    35bc:	02 c0       	rjmp	.+4      	; 0x35c2 <conv_brk+0x12a>
    35be:	35 95       	asr	r19
    35c0:	27 95       	ror	r18
    35c2:	4a 95       	dec	r20
    35c4:	e2 f7       	brpl	.-8      	; 0x35be <conv_brk+0x126>
    35c6:	20 fd       	sbrc	r18, 0
    35c8:	db cf       	rjmp	.-74     	; 0x3580 <conv_brk+0xe8>
    35ca:	b5 01       	movw	r22, r10
    35cc:	0e 94 7c 1c 	call	0x38f8	; 0x38f8 <ungetc>
    35d0:	91 10       	cpse	r9, r1
    35d2:	86 cf       	rjmp	.-244    	; 0x34e0 <conv_brk+0x48>
    35d4:	e1 14       	cp	r14, r1
    35d6:	f1 04       	cpc	r15, r1
    35d8:	11 f0       	breq	.+4      	; 0x35de <conv_brk+0x146>
    35da:	d7 01       	movw	r26, r14
    35dc:	1c 92       	st	X, r1
    35de:	c8 01       	movw	r24, r16
    35e0:	a1 96       	adiw	r28, 0x21	; 33
    35e2:	ed e0       	ldi	r30, 0x0D	; 13
    35e4:	0c 94 98 17 	jmp	0x2f30	; 0x2f30 <__epilogue_restores__+0xa>

000035e8 <vfscanf>:
    35e8:	4f 92       	push	r4
    35ea:	5f 92       	push	r5
    35ec:	7f 92       	push	r7
    35ee:	8f 92       	push	r8
    35f0:	9f 92       	push	r9
    35f2:	af 92       	push	r10
    35f4:	bf 92       	push	r11
    35f6:	cf 92       	push	r12
    35f8:	df 92       	push	r13
    35fa:	ef 92       	push	r14
    35fc:	ff 92       	push	r15
    35fe:	0f 93       	push	r16
    3600:	1f 93       	push	r17
    3602:	cf 93       	push	r28
    3604:	df 93       	push	r29
    3606:	1f 92       	push	r1
    3608:	cd b7       	in	r28, 0x3d	; 61
    360a:	de b7       	in	r29, 0x3e	; 62
    360c:	8c 01       	movw	r16, r24
    360e:	2b 01       	movw	r4, r22
    3610:	7a 01       	movw	r14, r20
    3612:	fc 01       	movw	r30, r24
    3614:	17 82       	std	Z+7, r1	; 0x07
    3616:	16 82       	std	Z+6, r1	; 0x06
    3618:	a1 2c       	mov	r10, r1
    361a:	f8 01       	movw	r30, r16
    361c:	d3 80       	ldd	r13, Z+3	; 0x03
    361e:	f2 01       	movw	r30, r4
    3620:	d3 fc       	sbrc	r13, 3
    3622:	85 91       	lpm	r24, Z+
    3624:	d3 fe       	sbrs	r13, 3
    3626:	81 91       	ld	r24, Z+
    3628:	38 2f       	mov	r19, r24
    362a:	2f 01       	movw	r4, r30
    362c:	88 23       	and	r24, r24
    362e:	09 f4       	brne	.+2      	; 0x3632 <vfscanf+0x4a>
    3630:	fc c0       	rjmp	.+504    	; 0x382a <vfscanf+0x242>
    3632:	90 e0       	ldi	r25, 0x00	; 0
    3634:	39 83       	std	Y+1, r19	; 0x01
    3636:	0e 94 2b 1c 	call	0x3856	; 0x3856 <isspace>
    363a:	39 81       	ldd	r19, Y+1	; 0x01
    363c:	89 2b       	or	r24, r25
    363e:	21 f0       	breq	.+8      	; 0x3648 <vfscanf+0x60>
    3640:	c8 01       	movw	r24, r16
    3642:	0e 94 a2 19 	call	0x3344	; 0x3344 <skip_spaces>
    3646:	e9 cf       	rjmp	.-46     	; 0x361a <vfscanf+0x32>
    3648:	35 32       	cpi	r19, 0x25	; 37
    364a:	41 f4       	brne	.+16     	; 0x365c <vfscanf+0x74>
    364c:	f2 01       	movw	r30, r4
    364e:	d3 fc       	sbrc	r13, 3
    3650:	35 91       	lpm	r19, Z+
    3652:	d3 fe       	sbrs	r13, 3
    3654:	31 91       	ld	r19, Z+
    3656:	2f 01       	movw	r4, r30
    3658:	35 32       	cpi	r19, 0x25	; 37
    365a:	69 f4       	brne	.+26     	; 0x3676 <vfscanf+0x8e>
    365c:	c8 01       	movw	r24, r16
    365e:	39 83       	std	Y+1, r19	; 0x01
    3660:	0e 94 3e 1c 	call	0x387c	; 0x387c <fgetc>
    3664:	39 81       	ldd	r19, Y+1	; 0x01
    3666:	97 fd       	sbrc	r25, 7
    3668:	de c0       	rjmp	.+444    	; 0x3826 <vfscanf+0x23e>
    366a:	38 17       	cp	r19, r24
    366c:	b1 f2       	breq	.-84     	; 0x361a <vfscanf+0x32>
    366e:	b8 01       	movw	r22, r16
    3670:	0e 94 7c 1c 	call	0x38f8	; 0x38f8 <ungetc>
    3674:	da c0       	rjmp	.+436    	; 0x382a <vfscanf+0x242>
    3676:	3a 32       	cpi	r19, 0x2A	; 42
    3678:	41 f4       	brne	.+16     	; 0x368a <vfscanf+0xa2>
    367a:	d3 fc       	sbrc	r13, 3
    367c:	35 91       	lpm	r19, Z+
    367e:	d3 fe       	sbrs	r13, 3
    3680:	31 91       	ld	r19, Z+
    3682:	2f 01       	movw	r4, r30
    3684:	bb 24       	eor	r11, r11
    3686:	b3 94       	inc	r11
    3688:	01 c0       	rjmp	.+2      	; 0x368c <vfscanf+0xa4>
    368a:	b1 2c       	mov	r11, r1
    368c:	71 2c       	mov	r7, r1
    368e:	20 ed       	ldi	r18, 0xD0	; 208
    3690:	23 0f       	add	r18, r19
    3692:	2a 30       	cpi	r18, 0x0A	; 10
    3694:	90 f4       	brcc	.+36     	; 0x36ba <vfscanf+0xd2>
    3696:	fb 2d       	mov	r31, r11
    3698:	f2 60       	ori	r31, 0x02	; 2
    369a:	bf 2e       	mov	r11, r31
    369c:	67 2d       	mov	r22, r7
    369e:	70 e0       	ldi	r23, 0x00	; 0
    36a0:	80 e0       	ldi	r24, 0x00	; 0
    36a2:	90 e0       	ldi	r25, 0x00	; 0
    36a4:	40 e2       	ldi	r20, 0x20	; 32
    36a6:	0e 94 82 19 	call	0x3304	; 0x3304 <mulacc>
    36aa:	76 2e       	mov	r7, r22
    36ac:	f2 01       	movw	r30, r4
    36ae:	d3 fc       	sbrc	r13, 3
    36b0:	35 91       	lpm	r19, Z+
    36b2:	d3 fe       	sbrs	r13, 3
    36b4:	31 91       	ld	r19, Z+
    36b6:	2f 01       	movw	r4, r30
    36b8:	ea cf       	rjmp	.-44     	; 0x368e <vfscanf+0xa6>
    36ba:	b1 fe       	sbrs	r11, 1
    36bc:	03 c0       	rjmp	.+6      	; 0x36c4 <vfscanf+0xdc>
    36be:	71 10       	cpse	r7, r1
    36c0:	03 c0       	rjmp	.+6      	; 0x36c8 <vfscanf+0xe0>
    36c2:	b3 c0       	rjmp	.+358    	; 0x382a <vfscanf+0x242>
    36c4:	77 24       	eor	r7, r7
    36c6:	7a 94       	dec	r7
    36c8:	38 36       	cpi	r19, 0x68	; 104
    36ca:	19 f0       	breq	.+6      	; 0x36d2 <vfscanf+0xea>
    36cc:	3c 36       	cpi	r19, 0x6C	; 108
    36ce:	61 f0       	breq	.+24     	; 0x36e8 <vfscanf+0x100>
    36d0:	14 c0       	rjmp	.+40     	; 0x36fa <vfscanf+0x112>
    36d2:	f2 01       	movw	r30, r4
    36d4:	d3 fc       	sbrc	r13, 3
    36d6:	35 91       	lpm	r19, Z+
    36d8:	d3 fe       	sbrs	r13, 3
    36da:	31 91       	ld	r19, Z+
    36dc:	2f 01       	movw	r4, r30
    36de:	38 36       	cpi	r19, 0x68	; 104
    36e0:	61 f4       	brne	.+24     	; 0x36fa <vfscanf+0x112>
    36e2:	fb 2d       	mov	r31, r11
    36e4:	f8 60       	ori	r31, 0x08	; 8
    36e6:	bf 2e       	mov	r11, r31
    36e8:	8b 2d       	mov	r24, r11
    36ea:	84 60       	ori	r24, 0x04	; 4
    36ec:	b8 2e       	mov	r11, r24
    36ee:	f2 01       	movw	r30, r4
    36f0:	d3 fc       	sbrc	r13, 3
    36f2:	35 91       	lpm	r19, Z+
    36f4:	d3 fe       	sbrs	r13, 3
    36f6:	31 91       	ld	r19, Z+
    36f8:	2f 01       	movw	r4, r30
    36fa:	33 23       	and	r19, r19
    36fc:	09 f4       	brne	.+2      	; 0x3700 <vfscanf+0x118>
    36fe:	95 c0       	rjmp	.+298    	; 0x382a <vfscanf+0x242>
    3700:	63 2f       	mov	r22, r19
    3702:	70 e0       	ldi	r23, 0x00	; 0
    3704:	8e e6       	ldi	r24, 0x6E	; 110
    3706:	94 e0       	ldi	r25, 0x04	; 4
    3708:	39 83       	std	Y+1, r19	; 0x01
    370a:	0e 94 33 1c 	call	0x3866	; 0x3866 <strchr_P>
    370e:	39 81       	ldd	r19, Y+1	; 0x01
    3710:	89 2b       	or	r24, r25
    3712:	09 f4       	brne	.+2      	; 0x3716 <vfscanf+0x12e>
    3714:	8a c0       	rjmp	.+276    	; 0x382a <vfscanf+0x242>
    3716:	b0 fc       	sbrc	r11, 0
    3718:	07 c0       	rjmp	.+14     	; 0x3728 <vfscanf+0x140>
    371a:	f7 01       	movw	r30, r14
    371c:	c0 80       	ld	r12, Z
    371e:	d1 80       	ldd	r13, Z+1	; 0x01
    3720:	c7 01       	movw	r24, r14
    3722:	02 96       	adiw	r24, 0x02	; 2
    3724:	7c 01       	movw	r14, r24
    3726:	02 c0       	rjmp	.+4      	; 0x372c <vfscanf+0x144>
    3728:	c1 2c       	mov	r12, r1
    372a:	d1 2c       	mov	r13, r1
    372c:	3e 36       	cpi	r19, 0x6E	; 110
    372e:	51 f4       	brne	.+20     	; 0x3744 <vfscanf+0x15c>
    3730:	f8 01       	movw	r30, r16
    3732:	46 81       	ldd	r20, Z+6	; 0x06
    3734:	57 81       	ldd	r21, Z+7	; 0x07
    3736:	60 e0       	ldi	r22, 0x00	; 0
    3738:	70 e0       	ldi	r23, 0x00	; 0
    373a:	2b 2d       	mov	r18, r11
    373c:	c6 01       	movw	r24, r12
    373e:	0e 94 76 19 	call	0x32ec	; 0x32ec <putval>
    3742:	6b cf       	rjmp	.-298    	; 0x361a <vfscanf+0x32>
    3744:	33 36       	cpi	r19, 0x63	; 99
    3746:	a1 f4       	brne	.+40     	; 0x3770 <vfscanf+0x188>
    3748:	b1 fc       	sbrc	r11, 1
    374a:	02 c0       	rjmp	.+4      	; 0x3750 <vfscanf+0x168>
    374c:	77 24       	eor	r7, r7
    374e:	73 94       	inc	r7
    3750:	c8 01       	movw	r24, r16
    3752:	0e 94 3e 1c 	call	0x387c	; 0x387c <fgetc>
    3756:	97 fd       	sbrc	r25, 7
    3758:	66 c0       	rjmp	.+204    	; 0x3826 <vfscanf+0x23e>
    375a:	c1 14       	cp	r12, r1
    375c:	d1 04       	cpc	r13, r1
    375e:	29 f0       	breq	.+10     	; 0x376a <vfscanf+0x182>
    3760:	f6 01       	movw	r30, r12
    3762:	80 83       	st	Z, r24
    3764:	c6 01       	movw	r24, r12
    3766:	01 96       	adiw	r24, 0x01	; 1
    3768:	6c 01       	movw	r12, r24
    376a:	7a 94       	dec	r7
    376c:	89 f7       	brne	.-30     	; 0x3750 <vfscanf+0x168>
    376e:	57 c0       	rjmp	.+174    	; 0x381e <vfscanf+0x236>
    3770:	3b 35       	cpi	r19, 0x5B	; 91
    3772:	59 f4       	brne	.+22     	; 0x378a <vfscanf+0x1a2>
    3774:	92 01       	movw	r18, r4
    3776:	a6 01       	movw	r20, r12
    3778:	67 2d       	mov	r22, r7
    377a:	c8 01       	movw	r24, r16
    377c:	0e 94 4c 1a 	call	0x3498	; 0x3498 <conv_brk>
    3780:	2c 01       	movw	r4, r24
    3782:	00 97       	sbiw	r24, 0x00	; 0
    3784:	09 f0       	breq	.+2      	; 0x3788 <vfscanf+0x1a0>
    3786:	4b c0       	rjmp	.+150    	; 0x381e <vfscanf+0x236>
    3788:	45 c0       	rjmp	.+138    	; 0x3814 <vfscanf+0x22c>
    378a:	c8 01       	movw	r24, r16
    378c:	39 83       	std	Y+1, r19	; 0x01
    378e:	0e 94 a2 19 	call	0x3344	; 0x3344 <skip_spaces>
    3792:	39 81       	ldd	r19, Y+1	; 0x01
    3794:	97 fd       	sbrc	r25, 7
    3796:	47 c0       	rjmp	.+142    	; 0x3826 <vfscanf+0x23e>
    3798:	3f 36       	cpi	r19, 0x6F	; 111
    379a:	69 f1       	breq	.+90     	; 0x37f6 <vfscanf+0x20e>
    379c:	28 f4       	brcc	.+10     	; 0x37a8 <vfscanf+0x1c0>
    379e:	34 36       	cpi	r19, 0x64	; 100
    37a0:	31 f1       	breq	.+76     	; 0x37ee <vfscanf+0x206>
    37a2:	39 36       	cpi	r19, 0x69	; 105
    37a4:	79 f1       	breq	.+94     	; 0x3804 <vfscanf+0x21c>
    37a6:	2b c0       	rjmp	.+86     	; 0x37fe <vfscanf+0x216>
    37a8:	33 37       	cpi	r19, 0x73	; 115
    37aa:	69 f0       	breq	.+26     	; 0x37c6 <vfscanf+0x1de>
    37ac:	35 37       	cpi	r19, 0x75	; 117
    37ae:	f9 f0       	breq	.+62     	; 0x37ee <vfscanf+0x206>
    37b0:	26 c0       	rjmp	.+76     	; 0x37fe <vfscanf+0x216>
    37b2:	c1 14       	cp	r12, r1
    37b4:	d1 04       	cpc	r13, r1
    37b6:	29 f0       	breq	.+10     	; 0x37c2 <vfscanf+0x1da>
    37b8:	f6 01       	movw	r30, r12
    37ba:	80 82       	st	Z, r8
    37bc:	c6 01       	movw	r24, r12
    37be:	01 96       	adiw	r24, 0x01	; 1
    37c0:	6c 01       	movw	r12, r24
    37c2:	7a 94       	dec	r7
    37c4:	71 f0       	breq	.+28     	; 0x37e2 <vfscanf+0x1fa>
    37c6:	c8 01       	movw	r24, r16
    37c8:	0e 94 3e 1c 	call	0x387c	; 0x387c <fgetc>
    37cc:	4c 01       	movw	r8, r24
    37ce:	97 fd       	sbrc	r25, 7
    37d0:	08 c0       	rjmp	.+16     	; 0x37e2 <vfscanf+0x1fa>
    37d2:	0e 94 2b 1c 	call	0x3856	; 0x3856 <isspace>
    37d6:	89 2b       	or	r24, r25
    37d8:	61 f3       	breq	.-40     	; 0x37b2 <vfscanf+0x1ca>
    37da:	b8 01       	movw	r22, r16
    37dc:	c4 01       	movw	r24, r8
    37de:	0e 94 7c 1c 	call	0x38f8	; 0x38f8 <ungetc>
    37e2:	c1 14       	cp	r12, r1
    37e4:	d1 04       	cpc	r13, r1
    37e6:	d9 f0       	breq	.+54     	; 0x381e <vfscanf+0x236>
    37e8:	f6 01       	movw	r30, r12
    37ea:	10 82       	st	Z, r1
    37ec:	18 c0       	rjmp	.+48     	; 0x381e <vfscanf+0x236>
    37ee:	fb 2d       	mov	r31, r11
    37f0:	f0 62       	ori	r31, 0x20	; 32
    37f2:	bf 2e       	mov	r11, r31
    37f4:	07 c0       	rjmp	.+14     	; 0x3804 <vfscanf+0x21c>
    37f6:	8b 2d       	mov	r24, r11
    37f8:	80 61       	ori	r24, 0x10	; 16
    37fa:	b8 2e       	mov	r11, r24
    37fc:	03 c0       	rjmp	.+6      	; 0x3804 <vfscanf+0x21c>
    37fe:	9b 2d       	mov	r25, r11
    3800:	90 64       	ori	r25, 0x40	; 64
    3802:	b9 2e       	mov	r11, r25
    3804:	2b 2d       	mov	r18, r11
    3806:	a6 01       	movw	r20, r12
    3808:	67 2d       	mov	r22, r7
    380a:	c8 01       	movw	r24, r16
    380c:	0e 94 bb 19 	call	0x3376	; 0x3376 <conv_int>
    3810:	81 11       	cpse	r24, r1
    3812:	05 c0       	rjmp	.+10     	; 0x381e <vfscanf+0x236>
    3814:	f8 01       	movw	r30, r16
    3816:	83 81       	ldd	r24, Z+3	; 0x03
    3818:	80 73       	andi	r24, 0x30	; 48
    381a:	29 f4       	brne	.+10     	; 0x3826 <vfscanf+0x23e>
    381c:	06 c0       	rjmp	.+12     	; 0x382a <vfscanf+0x242>
    381e:	b0 fc       	sbrc	r11, 0
    3820:	fc ce       	rjmp	.-520    	; 0x361a <vfscanf+0x32>
    3822:	a3 94       	inc	r10
    3824:	fa ce       	rjmp	.-524    	; 0x361a <vfscanf+0x32>
    3826:	aa 20       	and	r10, r10
    3828:	19 f0       	breq	.+6      	; 0x3830 <vfscanf+0x248>
    382a:	8a 2d       	mov	r24, r10
    382c:	90 e0       	ldi	r25, 0x00	; 0
    382e:	02 c0       	rjmp	.+4      	; 0x3834 <vfscanf+0x24c>
    3830:	8f ef       	ldi	r24, 0xFF	; 255
    3832:	9f ef       	ldi	r25, 0xFF	; 255
    3834:	0f 90       	pop	r0
    3836:	df 91       	pop	r29
    3838:	cf 91       	pop	r28
    383a:	1f 91       	pop	r17
    383c:	0f 91       	pop	r16
    383e:	ff 90       	pop	r15
    3840:	ef 90       	pop	r14
    3842:	df 90       	pop	r13
    3844:	cf 90       	pop	r12
    3846:	bf 90       	pop	r11
    3848:	af 90       	pop	r10
    384a:	9f 90       	pop	r9
    384c:	8f 90       	pop	r8
    384e:	7f 90       	pop	r7
    3850:	5f 90       	pop	r5
    3852:	4f 90       	pop	r4
    3854:	08 95       	ret

00003856 <isspace>:
    3856:	91 11       	cpse	r25, r1
    3858:	68 c0       	rjmp	.+208    	; 0x392a <__ctype_isfalse>
    385a:	80 32       	cpi	r24, 0x20	; 32
    385c:	19 f0       	breq	.+6      	; 0x3864 <isspace+0xe>
    385e:	89 50       	subi	r24, 0x09	; 9
    3860:	85 50       	subi	r24, 0x05	; 5
    3862:	d0 f7       	brcc	.-12     	; 0x3858 <isspace+0x2>
    3864:	08 95       	ret

00003866 <strchr_P>:
    3866:	fc 01       	movw	r30, r24
    3868:	05 90       	lpm	r0, Z+
    386a:	06 16       	cp	r0, r22
    386c:	21 f0       	breq	.+8      	; 0x3876 <strchr_P+0x10>
    386e:	00 20       	and	r0, r0
    3870:	d9 f7       	brne	.-10     	; 0x3868 <strchr_P+0x2>
    3872:	c0 01       	movw	r24, r0
    3874:	08 95       	ret
    3876:	31 97       	sbiw	r30, 0x01	; 1
    3878:	cf 01       	movw	r24, r30
    387a:	08 95       	ret

0000387c <fgetc>:
    387c:	cf 93       	push	r28
    387e:	df 93       	push	r29
    3880:	ec 01       	movw	r28, r24
    3882:	2b 81       	ldd	r18, Y+3	; 0x03
    3884:	20 ff       	sbrs	r18, 0
    3886:	33 c0       	rjmp	.+102    	; 0x38ee <fgetc+0x72>
    3888:	26 ff       	sbrs	r18, 6
    388a:	0a c0       	rjmp	.+20     	; 0x38a0 <fgetc+0x24>
    388c:	2f 7b       	andi	r18, 0xBF	; 191
    388e:	2b 83       	std	Y+3, r18	; 0x03
    3890:	8e 81       	ldd	r24, Y+6	; 0x06
    3892:	9f 81       	ldd	r25, Y+7	; 0x07
    3894:	01 96       	adiw	r24, 0x01	; 1
    3896:	9f 83       	std	Y+7, r25	; 0x07
    3898:	8e 83       	std	Y+6, r24	; 0x06
    389a:	8a 81       	ldd	r24, Y+2	; 0x02
    389c:	90 e0       	ldi	r25, 0x00	; 0
    389e:	29 c0       	rjmp	.+82     	; 0x38f2 <fgetc+0x76>
    38a0:	22 ff       	sbrs	r18, 2
    38a2:	0f c0       	rjmp	.+30     	; 0x38c2 <fgetc+0x46>
    38a4:	e8 81       	ld	r30, Y
    38a6:	f9 81       	ldd	r31, Y+1	; 0x01
    38a8:	80 81       	ld	r24, Z
    38aa:	99 27       	eor	r25, r25
    38ac:	87 fd       	sbrc	r24, 7
    38ae:	90 95       	com	r25
    38b0:	00 97       	sbiw	r24, 0x00	; 0
    38b2:	19 f4       	brne	.+6      	; 0x38ba <fgetc+0x3e>
    38b4:	20 62       	ori	r18, 0x20	; 32
    38b6:	2b 83       	std	Y+3, r18	; 0x03
    38b8:	1a c0       	rjmp	.+52     	; 0x38ee <fgetc+0x72>
    38ba:	31 96       	adiw	r30, 0x01	; 1
    38bc:	f9 83       	std	Y+1, r31	; 0x01
    38be:	e8 83       	st	Y, r30
    38c0:	0e c0       	rjmp	.+28     	; 0x38de <fgetc+0x62>
    38c2:	ea 85       	ldd	r30, Y+10	; 0x0a
    38c4:	fb 85       	ldd	r31, Y+11	; 0x0b
    38c6:	09 95       	icall
    38c8:	97 ff       	sbrs	r25, 7
    38ca:	09 c0       	rjmp	.+18     	; 0x38de <fgetc+0x62>
    38cc:	2b 81       	ldd	r18, Y+3	; 0x03
    38ce:	01 96       	adiw	r24, 0x01	; 1
    38d0:	11 f4       	brne	.+4      	; 0x38d6 <fgetc+0x5a>
    38d2:	80 e1       	ldi	r24, 0x10	; 16
    38d4:	01 c0       	rjmp	.+2      	; 0x38d8 <fgetc+0x5c>
    38d6:	80 e2       	ldi	r24, 0x20	; 32
    38d8:	82 2b       	or	r24, r18
    38da:	8b 83       	std	Y+3, r24	; 0x03
    38dc:	08 c0       	rjmp	.+16     	; 0x38ee <fgetc+0x72>
    38de:	2e 81       	ldd	r18, Y+6	; 0x06
    38e0:	3f 81       	ldd	r19, Y+7	; 0x07
    38e2:	2f 5f       	subi	r18, 0xFF	; 255
    38e4:	3f 4f       	sbci	r19, 0xFF	; 255
    38e6:	3f 83       	std	Y+7, r19	; 0x07
    38e8:	2e 83       	std	Y+6, r18	; 0x06
    38ea:	99 27       	eor	r25, r25
    38ec:	02 c0       	rjmp	.+4      	; 0x38f2 <fgetc+0x76>
    38ee:	8f ef       	ldi	r24, 0xFF	; 255
    38f0:	9f ef       	ldi	r25, 0xFF	; 255
    38f2:	df 91       	pop	r29
    38f4:	cf 91       	pop	r28
    38f6:	08 95       	ret

000038f8 <ungetc>:
    38f8:	fb 01       	movw	r30, r22
    38fa:	23 81       	ldd	r18, Z+3	; 0x03
    38fc:	20 ff       	sbrs	r18, 0
    38fe:	12 c0       	rjmp	.+36     	; 0x3924 <ungetc+0x2c>
    3900:	26 fd       	sbrc	r18, 6
    3902:	10 c0       	rjmp	.+32     	; 0x3924 <ungetc+0x2c>
    3904:	8f 3f       	cpi	r24, 0xFF	; 255
    3906:	3f ef       	ldi	r19, 0xFF	; 255
    3908:	93 07       	cpc	r25, r19
    390a:	61 f0       	breq	.+24     	; 0x3924 <ungetc+0x2c>
    390c:	82 83       	std	Z+2, r24	; 0x02
    390e:	2f 7d       	andi	r18, 0xDF	; 223
    3910:	20 64       	ori	r18, 0x40	; 64
    3912:	23 83       	std	Z+3, r18	; 0x03
    3914:	26 81       	ldd	r18, Z+6	; 0x06
    3916:	37 81       	ldd	r19, Z+7	; 0x07
    3918:	21 50       	subi	r18, 0x01	; 1
    391a:	31 09       	sbc	r19, r1
    391c:	37 83       	std	Z+7, r19	; 0x07
    391e:	26 83       	std	Z+6, r18	; 0x06
    3920:	99 27       	eor	r25, r25
    3922:	08 95       	ret
    3924:	8f ef       	ldi	r24, 0xFF	; 255
    3926:	9f ef       	ldi	r25, 0xFF	; 255
    3928:	08 95       	ret

0000392a <__ctype_isfalse>:
    392a:	99 27       	eor	r25, r25
    392c:	88 27       	eor	r24, r24

0000392e <__ctype_istrue>:
    392e:	08 95       	ret

00003930 <_exit>:
    3930:	f8 94       	cli

00003932 <__stop_program>:
    3932:	ff cf       	rjmp	.-2      	; 0x3932 <__stop_program>
